---
triple:          'arm64-apple-darwin'
binary-path:     '/Users/yanzhang/Desktop/Test Project/blackjack'
relocations:
  - { offsetInCU: 0x4E8C, offset: 0x4E8C, size: 0x8, addend: 0x0, symName: __ZN2sfmiIfEENS_7Vector2IT_EERKS3_S5_, symObjAddr: 0x39E4, symBinAddr: 0x1000053A8, symSize: 0x58 }
  - { offsetInCU: 0x4ECF, offset: 0x4ECF, size: 0x8, addend: 0x0, symName: __ZN2sfmlIfEENS_7Vector2IT_EERKS3_S2_, symObjAddr: 0x3A54, symBinAddr: 0x100005418, symSize: 0x50 }
  - { offsetInCU: 0x15484, offset: 0x15484, size: 0x8, addend: 0x0, symName: __ZNSt3__16copy_nB7v160006IPKcmPcEENS_9enable_ifIXsr33__is_cpp17_random_access_iteratorIT_EE5valueET1_E4typeES5_T0_S6_, symObjAddr: 0xBAC8, symBinAddr: 0x10000D48C, symSize: 0x44 }
  - { offsetInCU: 0x159B5, offset: 0x159B5, size: 0x8, addend: 0x0, symName: __ZNSt3__124__put_character_sequenceB7v160006IcNS_11char_traitsIcEEEERNS_13basic_ostreamIT_T0_EES7_PKS4_m, symObjAddr: 0xCCF4, symBinAddr: 0x10000E6B8, symSize: 0x1F4 }
  - { offsetInCU: 0x1BBE1, offset: 0x1BBE1, size: 0x8, addend: 0x0, symName: __ZNSt3__19__shuffleB7v160006INS_17_ClassicAlgPolicyENS_11__wrap_iterIP4CardEES5_RNS_23mersenne_twister_engineIjLm32ELm624ELm397ELm31ELj2567483615ELm11ELj4294967295ELm7ELj2636928640ELm15ELj4022730752ELm18ELj1812433253EEEEET0_S9_T1_OT2_, symObjAddr: 0x12CFC, symBinAddr: 0x1000146C0, symSize: 0x148 }
  - { offsetInCU: 0x1D5BC, offset: 0x1D5BC, size: 0x8, addend: 0x0, symName: __ZNSt3__1plB7v160006IcNS_11char_traitsIcEENS_9allocatorIcEEEENS_12basic_stringIT_T0_T1_EERKS9_PKS6_, symObjAddr: 0x850, symBinAddr: 0x100002214, symSize: 0x11C }
  - { offsetInCU: 0x1D65D, offset: 0x1D65D, size: 0x8, addend: 0x0, symName: __ZNSt3__1plB7v160006IcNS_11char_traitsIcEENS_9allocatorIcEEEENS_12basic_stringIT_T0_T1_EERKS9_SB_, symObjAddr: 0x96C, symBinAddr: 0x100002330, symSize: 0x134 }
  - { offsetInCU: 0x1D6FE, offset: 0x1D6FE, size: 0x8, addend: 0x0, symName: __ZNSt3__111make_sharedB7v160006IN2sf7TextureEJEvEENS_10shared_ptrIT_EEDpOT0_, symObjAddr: 0xAA0, symBinAddr: 0x100002464, symSize: 0x38 }
  - { offsetInCU: 0x1D72C, offset: 0x1D72C, size: 0x8, addend: 0x0, symName: __ZNSt3__1lsB7v160006IcNS_11char_traitsIcEENS_9allocatorIcEEEERNS_13basic_ostreamIT_T0_EES9_RKNS_12basic_stringIS6_S7_T1_EE, symObjAddr: 0xB1C, symBinAddr: 0x1000024E0, symSize: 0x4C }
  - { offsetInCU: 0x1D784, offset: 0x1D784, size: 0x8, addend: 0x0, symName: __ZNSt3__1lsB7v160006INS_11char_traitsIcEEEERNS_13basic_ostreamIcT_EES6_PKc, symObjAddr: 0xB68, symBinAddr: 0x10000252C, symSize: 0x48 }
  - { offsetInCU: 0x1D7CA, offset: 0x1D7CA, size: 0x8, addend: 0x0, symName: __ZNSt3__14endlB7v160006IcNS_11char_traitsIcEEEERNS_13basic_ostreamIT_T0_EES7_, symObjAddr: 0xBDC, symBinAddr: 0x1000025A0, symSize: 0x58 }
  - { offsetInCU: 0x1D80A, offset: 0x1D80A, size: 0x8, addend: 0x0, symName: __ZNSt3__1neB7v160006ERKNS_25__hash_map_const_iteratorINS_21__hash_const_iteratorIPNS_11__hash_nodeINS_17__hash_value_typeINS_12basic_stringIcNS_11char_traitsIcEENS_9allocatorIcEEEENS_10shared_ptrIN2sf7TextureEEEEEPvEEEEEESL_, symObjAddr: 0x165C, symBinAddr: 0x100003020, symSize: 0x30 }
  - { offsetInCU: 0x1D848, offset: 0x1D848, size: 0x8, addend: 0x0, symName: __ZNSt3__17shuffleB7v160006INS_11__wrap_iterIP4CardEERNS_23mersenne_twister_engineIjLm32ELm624ELm397ELm31ELj2567483615ELm11ELj4294967295ELm7ELj2636928640ELm15ELj4022730752ELm18ELj1812433253EEEEEvT_S8_OT0_, symObjAddr: 0x1844, symBinAddr: 0x100003208, symSize: 0x48 }
  - { offsetInCU: 0x1D89D, offset: 0x1D89D, size: 0x8, addend: 0x0, symName: __ZNSt3__1neB7v160006IPK4CardEEbRKNS_11__wrap_iterIT_EES8_, symObjAddr: 0x1A8C, symBinAddr: 0x100003450, symSize: 0x34 }
  - { offsetInCU: 0x1D8E0, offset: 0x1D8E0, size: 0x8, addend: 0x0, symName: __ZNSt3__1eqB7v160006IcNS_11char_traitsIcEENS_9allocatorIcEEEEbRKNS_12basic_stringIT_T0_T1_EEPKS6_, symObjAddr: 0x1AD8, symBinAddr: 0x10000349C, symSize: 0xC0 }
  - { offsetInCU: 0x1D947, offset: 0x1D947, size: 0x8, addend: 0x0, symName: __ZNSt3__1neB7v160006IP4CardEEbRKNS_11__wrap_iterIT_EES7_, symObjAddr: 0x7DD4, symBinAddr: 0x100009798, symSize: 0x34 }
  - { offsetInCU: 0x1D98B, offset: 0x1D98B, size: 0x8, addend: 0x0, symName: __ZNSt3__118__debug_db_erase_cB7v160006INS_12basic_stringIjNS_11char_traitsIjEENS_9allocatorIjEEEEEEvPT_, symObjAddr: 0x7F44, symBinAddr: 0x100009908, symSize: 0x10 }
  - { offsetInCU: 0x1D9BC, offset: 0x1D9BC, size: 0x8, addend: 0x0, symName: __ZNSt3__130__libcpp_is_constant_evaluatedB7v160006Ev, symObjAddr: 0x8078, symBinAddr: 0x100009A3C, symSize: 0xC }
  - { offsetInCU: 0x1D9D9, offset: 0x1D9D9, size: 0x8, addend: 0x0, symName: __ZNSt3__119__libcpp_deallocateB7v160006EPvmm, symObjAddr: 0x812C, symBinAddr: 0x100009AF0, symSize: 0x30 }
  - { offsetInCU: 0x1DA21, offset: 0x1DA21, size: 0x8, addend: 0x0, symName: __ZNSt3__127__do_deallocate_handle_sizeB7v160006IJEEEvPvmDpT_, symObjAddr: 0x815C, symBinAddr: 0x100009B20, symSize: 0x28 }
  - { offsetInCU: 0x1DA5F, offset: 0x1DA5F, size: 0x8, addend: 0x0, symName: __ZNSt3__124__libcpp_operator_deleteB7v160006IJPvEEEvDpT_, symObjAddr: 0x8184, symBinAddr: 0x100009B48, symSize: 0x24 }
  - { offsetInCU: 0x1DA94, offset: 0x1DA94, size: 0x8, addend: 0x0, symName: __ZNSt3__118__debug_db_erase_cB7v160006INS_6vectorIN2sf6VertexENS_9allocatorIS3_EEEEEEvPT_, symObjAddr: 0x8630, symBinAddr: 0x100009FF4, symSize: 0x10 }
  - { offsetInCU: 0x1DAC5, offset: 0x1DAC5, size: 0x8, addend: 0x0, symName: __ZNSt3__112__to_addressB7v160006IN2sf6VertexEEEPT_S4_, symObjAddr: 0x8774, symBinAddr: 0x10000A138, symSize: 0x14 }
  - { offsetInCU: 0x1DAFA, offset: 0x1DAFA, size: 0x8, addend: 0x0, symName: __ZNSt3__122__make_exception_guardB7v160006INS_6vectorIN2sf6VertexENS_9allocatorIS3_EEE16__destroy_vectorEEENS_28__exception_guard_exceptionsIT_EES9_, symObjAddr: 0x8F60, symBinAddr: 0x10000A924, symSize: 0x40 }
  - { offsetInCU: 0x1DB30, offset: 0x1DB30, size: 0x8, addend: 0x0, symName: __ZNSt3__119__debug_db_insert_cB7v160006INS_6vectorIN2sf6VertexENS_9allocatorIS3_EEEEEEvPT_, symObjAddr: 0x8FA0, symBinAddr: 0x10000A964, symSize: 0x10 }
  - { offsetInCU: 0x1DB60, offset: 0x1DB60, size: 0x8, addend: 0x0, symName: __ZNSt3__119__allocate_at_leastB7v160006INS_9allocatorIN2sf6VertexEEEEENS_19__allocation_resultINS_16allocator_traitsIT_E7pointerEEERS7_m, symObjAddr: 0x92D8, symBinAddr: 0x10000AC9C, symSize: 0x40 }
  - { offsetInCU: 0x1DBA3, offset: 0x1DBA3, size: 0x8, addend: 0x0, symName: __ZNSt3__13minB7v160006ImEERKT_S3_S3_, symObjAddr: 0x9408, symBinAddr: 0x10000ADCC, symSize: 0x2C }
  - { offsetInCU: 0x1DDE7, offset: 0x1DDE7, size: 0x8, addend: 0x0, symName: __ZNSt3__13minB7v160006ImNS_6__lessImmEEEERKT_S5_S5_T0_, symObjAddr: 0x946C, symBinAddr: 0x10000AE30, symSize: 0x54 }
  - { offsetInCU: 0x1DE7D, offset: 0x1DE7D, size: 0x8, addend: 0x0, symName: __ZNSt3__120__throw_length_errorB7v160006EPKc, symObjAddr: 0x9514, symBinAddr: 0x10000AED8, symSize: 0x64 }
  - { offsetInCU: 0x1DEA5, offset: 0x1DEA5, size: 0x8, addend: 0x0, symName: __ZNSt3__117__libcpp_allocateB7v160006Emm, symObjAddr: 0x96B8, symBinAddr: 0x10000B07C, symSize: 0x28 }
  - { offsetInCU: 0x1DEE2, offset: 0x1DEE2, size: 0x8, addend: 0x0, symName: __ZNSt3__121__libcpp_operator_newB7v160006IJmEEEPvDpT_, symObjAddr: 0x96E0, symBinAddr: 0x10000B0A4, symSize: 0x24 }
  - { offsetInCU: 0x1DF1B, offset: 0x1DF1B, size: 0x8, addend: 0x0, symName: __ZNSt3__130__uninitialized_allocator_copyB7v160006INS_9allocatorIN2sf6VertexEEEPS3_S5_S5_EET2_RT_T0_T1_S6_, symObjAddr: 0x9778, symBinAddr: 0x10000B13C, symSize: 0xFC }
  - { offsetInCU: 0x1DFB9, offset: 0x1DFB9, size: 0x8, addend: 0x0, symName: __ZNSt3__122__make_exception_guardB7v160006INS_29_AllocatorDestroyRangeReverseINS_9allocatorIN2sf6VertexEEEPS4_EEEENS_28__exception_guard_exceptionsIT_EES9_, symObjAddr: 0x98EC, symBinAddr: 0x10000B2B0, symSize: 0x4C }
  - { offsetInCU: 0x1DFF0, offset: 0x1DFF0, size: 0x8, addend: 0x0, symName: __ZNSt3__119__allocator_destroyB7v160006INS_9allocatorIN2sf6VertexEEENS_16reverse_iteratorIPS3_EES7_EEvRT_T0_T1_, symObjAddr: 0x9B74, symBinAddr: 0x10000B538, symSize: 0x70 }
  - { offsetInCU: 0x1E052, offset: 0x1E052, size: 0x8, addend: 0x0, symName: __ZNSt3__1neB7v160006IPN2sf6VertexES3_EEbRKNS_16reverse_iteratorIT_EERKNS4_IT0_EE, symObjAddr: 0x9C18, symBinAddr: 0x10000B5DC, symSize: 0x48 }
  - { offsetInCU: 0x1E09E, offset: 0x1E09E, size: 0x8, addend: 0x0, symName: __ZNSt3__112__to_addressB7v160006INS_16reverse_iteratorIPN2sf6VertexEEEvEENS_5decayIDTclsr19__to_address_helperIT_EE6__callclsr3stdE7declvalIRKS7_EEEEE4typeES9_, symObjAddr: 0x9C60, symBinAddr: 0x10000B624, symSize: 0x24 }
  - { offsetInCU: 0x1E0FF, offset: 0x1E0FF, size: 0x8, addend: 0x0, symName: __ZNSt3__134__libcpp_atomic_refcount_decrementB7v160006IlEET_RS1_, symObjAddr: 0xA08C, symBinAddr: 0x10000BA50, symSize: 0x30 }
  - { offsetInCU: 0x1E135, offset: 0x1E135, size: 0x8, addend: 0x0, symName: __ZNSt3__119__debug_db_insert_cB7v160006INS_13unordered_mapINS_12basic_stringIcNS_11char_traitsIcEENS_9allocatorIcEEEENS_10shared_ptrIN2sf7TextureEEENS_4hashIS7_EENS_8equal_toIS7_EENS5_INS_4pairIKS7_SB_EEEEEEEEvPT_, symObjAddr: 0xA14C, symBinAddr: 0x10000BB10, symSize: 0x10 }
  - { offsetInCU: 0x1E166, offset: 0x1E166, size: 0x8, addend: 0x0, symName: __ZNSt3__118__debug_db_erase_cB7v160006INS_12__hash_tableINS_17__hash_value_typeINS_12basic_stringIcNS_11char_traitsIcEENS_9allocatorIcEEEENS_10shared_ptrIN2sf7TextureEEEEENS_22__unordered_map_hasherIS8_SD_NS_4hashIS8_EENS_8equal_toIS8_EELb1EEENS_21__unordered_map_equalIS8_SD_SI_SG_Lb1EEENS6_ISD_EEEEEEvPT_, symObjAddr: 0xAC00, symBinAddr: 0x10000C5C4, symSize: 0x10 }
  - { offsetInCU: 0x1E1CA, offset: 0x1E1CA, size: 0x8, addend: 0x0, symName: __ZNSt3__119__debug_db_insert_cB7v160006INS_12basic_stringIcNS_11char_traitsIcEENS_9allocatorIcEEEEEEvPT_, symObjAddr: 0xAF68, symBinAddr: 0x10000C92C, symSize: 0x10 }
  - { offsetInCU: 0x1E1FA, offset: 0x1E1FA, size: 0x8, addend: 0x0, symName: __ZNSt3__118__constexpr_strlenB7v160006EPKc, symObjAddr: 0xB034, symBinAddr: 0x10000C9F8, symSize: 0x24 }
  - { offsetInCU: 0x1E227, offset: 0x1E227, size: 0x8, addend: 0x0, symName: __ZNSt3__112__to_addressB7v160006IcEEPT_S2_, symObjAddr: 0xB11C, symBinAddr: 0x10000CAE0, symSize: 0x14 }
  - { offsetInCU: 0x1E28F, offset: 0x1E28F, size: 0x8, addend: 0x0, symName: __ZNSt3__14copyB7v160006IPKcPcEET0_T_S5_S4_, symObjAddr: 0xBB0C, symBinAddr: 0x10000D4D0, symSize: 0x40 }
  - { offsetInCU: 0x1E2E9, offset: 0x1E2E9, size: 0x8, addend: 0x0, symName: __ZNSt3__16__copyB7v160006INS_17_ClassicAlgPolicyEPKcS3_PcEENS_4pairIT0_T2_EES6_T1_S7_, symObjAddr: 0xBB4C, symBinAddr: 0x10000D510, symSize: 0x44 }
  - { offsetInCU: 0x1E355, offset: 0x1E355, size: 0x8, addend: 0x0, symName: __ZNSt3__123__dispatch_copy_or_moveB7v160006INS_17_ClassicAlgPolicyENS_11__copy_loopIS1_EENS_14__copy_trivialEPKcS6_PcEENS_4pairIT2_T4_EES9_T3_SA_, symObjAddr: 0xBB90, symBinAddr: 0x10000D554, symSize: 0x54 }
  - { offsetInCU: 0x1E3D3, offset: 0x1E3D3, size: 0x8, addend: 0x0, symName: __ZNSt3__121__unwrap_and_dispatchB7v160006INS_10__overloadINS_11__copy_loopINS_17_ClassicAlgPolicyEEENS_14__copy_trivialEEEPKcS8_PcLi0EEENS_4pairIT0_T2_EESB_T1_SC_, symObjAddr: 0xBBE4, symBinAddr: 0x10000D5A8, symSize: 0xB4 }
  - { offsetInCU: 0x1E461, offset: 0x1E461, size: 0x8, addend: 0x0, symName: __ZNSt3__114__unwrap_rangeB7v160006IPKcS2_EENS_4pairIT0_S4_EET_S6_, symObjAddr: 0xBC98, symBinAddr: 0x10000D65C, symSize: 0x60 }
  - { offsetInCU: 0x1E5A0, offset: 0x1E5A0, size: 0x8, addend: 0x0, symName: __ZNSt3__113__unwrap_iterB7v160006IPcNS_18__unwrap_iter_implIS1_Lb1EEELi0EEEDTclsrT0_8__unwrapclsr3stdE7declvalIT_EEEES5_, symObjAddr: 0xBD40, symBinAddr: 0x10000D704, symSize: 0x24 }
  - { offsetInCU: 0x1E5E4, offset: 0x1E5E4, size: 0x8, addend: 0x0, symName: __ZNSt3__19make_pairB7v160006IPKcPcEENS_4pairINS_18__unwrap_ref_decayIT_E4typeENS5_IT0_E4typeEEEOS6_OS9_, symObjAddr: 0xBD64, symBinAddr: 0x10000D728, symSize: 0x38 }
  - { offsetInCU: 0x1E633, offset: 0x1E633, size: 0x8, addend: 0x0, symName: __ZNSt3__114__rewrap_rangeB7v160006IPKcS2_EET_S3_T0_, symObjAddr: 0xBD9C, symBinAddr: 0x10000D760, symSize: 0x2C }
  - { offsetInCU: 0x1E67F, offset: 0x1E67F, size: 0x8, addend: 0x0, symName: __ZNSt3__113__rewrap_iterB7v160006IPcS1_NS_18__unwrap_iter_implIS1_Lb1EEEEET_S4_T0_, symObjAddr: 0xBDC8, symBinAddr: 0x10000D78C, symSize: 0x50 }
  - { offsetInCU: 0x1E6D4, offset: 0x1E6D4, size: 0x8, addend: 0x0, symName: __ZNSt3__19make_pairB7v160006IPKcS2_EENS_4pairINS_18__unwrap_ref_decayIT_E4typeENS4_IT0_E4typeEEEOS5_OS8_, symObjAddr: 0xBE18, symBinAddr: 0x10000D7DC, symSize: 0x38 }
  - { offsetInCU: 0x1E723, offset: 0x1E723, size: 0x8, addend: 0x0, symName: __ZNSt3__113__unwrap_iterB7v160006IPKcNS_18__unwrap_iter_implIS2_Lb1EEELi0EEEDTclsrT0_8__unwrapclsr3stdE7declvalIT_EEEES6_, symObjAddr: 0xBE50, symBinAddr: 0x10000D814, symSize: 0x24 }
  - { offsetInCU: 0x1E868, offset: 0x1E868, size: 0x8, addend: 0x0, symName: __ZNSt3__112__to_addressB7v160006IKcEEPT_S3_, symObjAddr: 0xBF08, symBinAddr: 0x10000D8CC, symSize: 0x14 }
  - { offsetInCU: 0x1E89D, offset: 0x1E89D, size: 0x8, addend: 0x0, symName: __ZNSt3__119__copy_trivial_implB7v160006IKccEENS_4pairIPT_PT0_EES4_S4_S6_, symObjAddr: 0xBF1C, symBinAddr: 0x10000D8E0, symSize: 0x7C }
  - { offsetInCU: 0x1E905, offset: 0x1E905, size: 0x8, addend: 0x0, symName: __ZNSt3__19make_pairB7v160006IRPKcPcEENS_4pairINS_18__unwrap_ref_decayIT_E4typeENS6_IT0_E4typeEEEOS7_OSA_, symObjAddr: 0xBF98, symBinAddr: 0x10000D95C, symSize: 0x38 }
  - { offsetInCU: 0x1E9A7, offset: 0x1E9A7, size: 0x8, addend: 0x0, symName: __ZNSt3__113__rewrap_iterB7v160006IPKcS2_NS_18__unwrap_iter_implIS2_Lb1EEEEET_S5_T0_, symObjAddr: 0xC064, symBinAddr: 0x10000DA28, symSize: 0x50 }
  - { offsetInCU: 0x1EA2F, offset: 0x1EA2F, size: 0x8, addend: 0x0, symName: __ZNSt3__16fill_nB7v160006IPcmcEET_S2_T0_RKT1_, symObjAddr: 0xC1FC, symBinAddr: 0x10000DBC0, symSize: 0x44 }
  - { offsetInCU: 0x1EA93, offset: 0x1EA93, size: 0x8, addend: 0x0, symName: __ZNSt3__18__fill_nB7v160006IPcmcEET_S2_T0_RKT1_, symObjAddr: 0xC240, symBinAddr: 0x10000DC04, symSize: 0x64 }
  - { offsetInCU: 0x1EAF7, offset: 0x1EAF7, size: 0x8, addend: 0x0, symName: __ZNSt3__121__convert_to_integralB7v160006Em, symObjAddr: 0xC2A4, symBinAddr: 0x10000DC68, symSize: 0x14 }
  - { offsetInCU: 0x1EB23, offset: 0x1EB23, size: 0x8, addend: 0x0, symName: __ZNSt3__115allocate_sharedB7v160006IN2sf7TextureENS_9allocatorIS2_EEJEvEENS_10shared_ptrIT_EERKT0_DpOT1_, symObjAddr: 0xC2B8, symBinAddr: 0x10000DC7C, symSize: 0x90 }
  - { offsetInCU: 0x1EE4F, offset: 0x1EE4F, size: 0x8, addend: 0x0, symName: __ZNSt3__116__pad_and_outputB7v160006IcNS_11char_traitsIcEEEENS_19ostreambuf_iteratorIT_T0_EES6_PKS4_S8_S8_RNS_8ios_baseES4_, symObjAddr: 0xCF04, symBinAddr: 0x10000E8C8, symSize: 0x248 }
  - { offsetInCU: 0x1EF1E, offset: 0x1EF1E, size: 0x8, addend: 0x0, symName: __ZNSt3__19use_facetB7v160006INS_5ctypeIcEEEERKT_RKNS_6localeE, symObjAddr: 0xD4BC, symBinAddr: 0x10000EE80, symSize: 0x2C }
  - { offsetInCU: 0x1F3ED, offset: 0x1F3ED, size: 0x8, addend: 0x0, symName: __ZNSt3__1neB7v160006ERKNS_19__hash_map_iteratorINS_15__hash_iteratorIPNS_11__hash_nodeINS_17__hash_value_typeINS_12basic_stringIcNS_11char_traitsIcEENS_9allocatorIcEEEENS_10shared_ptrIN2sf7TextureEEEEEPvEEEEEESL_, symObjAddr: 0xD594, symBinAddr: 0x10000EF58, symSize: 0x30 }
  - { offsetInCU: 0x1F42B, offset: 0x1F42B, size: 0x8, addend: 0x0, symName: __ZNSt3__116__constrain_hashB7v160006Emm, symObjAddr: 0xDB64, symBinAddr: 0x10000F528, symSize: 0x98 }
  - { offsetInCU: 0x1F465, offset: 0x1F465, size: 0x8, addend: 0x0, symName: __ZNSt3__116__do_string_hashB7v160006IPKcEEmT_S3_, symObjAddr: 0xDDD4, symBinAddr: 0x10000F798, symSize: 0x3C }
  - { offsetInCU: 0x1F4AC, offset: 0x1F4AC, size: 0x8, addend: 0x0, symName: __ZNSt3__110__loadwordB7v160006ImEET_PKv, symObjAddr: 0xE7C8, symBinAddr: 0x10001018C, symSize: 0x20 }
  - { offsetInCU: 0x1F4F0, offset: 0x1F4F0, size: 0x8, addend: 0x0, symName: __ZNSt3__14swapB7v160006ImEEvRT_S2_, symObjAddr: 0xE984, symBinAddr: 0x100010348, symSize: 0x3C }
  - { offsetInCU: 0x1F542, offset: 0x1F542, size: 0x8, addend: 0x0, symName: __ZNSt3__110__loadwordB7v160006IjEET_PKv, symObjAddr: 0xEA14, symBinAddr: 0x1000103D8, symSize: 0x20 }
  - { offsetInCU: 0x1F585, offset: 0x1F585, size: 0x8, addend: 0x0, symName: __ZNSt3__1eqB7v160006INS_9allocatorIcEEEEbRKNS_12basic_stringIcNS_11char_traitsIcEET_EES9_, symObjAddr: 0xECF4, symBinAddr: 0x1000106B8, symSize: 0x148 }
  - { offsetInCU: 0x1F5F8, offset: 0x1F5F8, size: 0x8, addend: 0x0, symName: __ZNSt3__118__constexpr_memcmpB7v160006IcEEiPKT_S3_m, symObjAddr: 0xEEBC, symBinAddr: 0x100010880, symSize: 0x34 }
  - { offsetInCU: 0x1F649, offset: 0x1F649, size: 0x8, addend: 0x0, symName: __ZNSt3__1neB7v160006ERKNS_15__hash_iteratorIPNS_11__hash_nodeINS_17__hash_value_typeINS_12basic_stringIcNS_11char_traitsIcEENS_9allocatorIcEEEENS_10shared_ptrIN2sf7TextureEEEEEPvEEEESJ_, symObjAddr: 0xEF34, symBinAddr: 0x1000108F8, symSize: 0x34 }
  - { offsetInCU: 0x1F687, offset: 0x1F687, size: 0x8, addend: 0x0, symName: __ZNSt3__1eqB7v160006ERKNS_15__hash_iteratorIPNS_11__hash_nodeINS_17__hash_value_typeINS_12basic_stringIcNS_11char_traitsIcEENS_9allocatorIcEEEENS_10shared_ptrIN2sf7TextureEEEEEPvEEEESJ_, symObjAddr: 0xEF68, symBinAddr: 0x10001092C, symSize: 0x30 }
  - { offsetInCU: 0x1F748, offset: 0x1F748, size: 0x8, addend: 0x0, symName: __ZNSt3__13maxB7v160006ImEERKT_S3_S3_, symObjAddr: 0xF928, symBinAddr: 0x1000112EC, symSize: 0x2C }
  - { offsetInCU: 0x1F78C, offset: 0x1F78C, size: 0x8, addend: 0x0, symName: __ZNSt3__116__is_hash_power2B7v160006Em, symObjAddr: 0xF954, symBinAddr: 0x100011318, symSize: 0x50 }
  - { offsetInCU: 0x1F7B8, offset: 0x1F7B8, size: 0x8, addend: 0x0, symName: __ZNSt3__116__next_hash_pow2B7v160006Em, symObjAddr: 0xFE50, symBinAddr: 0x100011814, symSize: 0x6C }
  - { offsetInCU: 0x1F7E5, offset: 0x1F7E5, size: 0x8, addend: 0x0, symName: __ZNSt3__125__debug_db_invalidate_allB7v160006INS_12__hash_tableINS_17__hash_value_typeINS_12basic_stringIcNS_11char_traitsIcEENS_9allocatorIcEEEENS_10shared_ptrIN2sf7TextureEEEEENS_22__unordered_map_hasherIS8_SD_NS_4hashIS8_EENS_8equal_toIS8_EELb1EEENS_21__unordered_map_equalIS8_SD_SI_SG_Lb1EEENS6_ISD_EEEEEEvPT_, symObjAddr: 0xFEBC, symBinAddr: 0x100011880, symSize: 0x10 }
  - { offsetInCU: 0x1F834, offset: 0x1F834, size: 0x8, addend: 0x0, symName: __ZNSt3__112__libcpp_clzB7v160006Em, symObjAddr: 0x10050, symBinAddr: 0x100011A14, symSize: 0x1C }
  - { offsetInCU: 0x1F860, offset: 0x1F860, size: 0x8, addend: 0x0, symName: __ZNSt3__13maxB7v160006ImNS_6__lessImmEEEERKT_S5_S5_T0_, symObjAddr: 0x1006C, symBinAddr: 0x100011A30, symSize: 0x54 }
  - { offsetInCU: 0x1F8BB, offset: 0x1F8BB, size: 0x8, addend: 0x0, symName: __ZNSt3__134__libcpp_atomic_refcount_incrementB7v160006IlEET_RS1_, symObjAddr: 0x104B0, symBinAddr: 0x100011E74, symSize: 0x30 }
  - { offsetInCU: 0x1F8F1, offset: 0x1F8F1, size: 0x8, addend: 0x0, symName: __ZNSt3__14swapB7v160006IPN2sf7TextureEEEvRT_S5_, symObjAddr: 0x104E0, symBinAddr: 0x100011EA4, symSize: 0x3C }
  - { offsetInCU: 0x1F943, offset: 0x1F943, size: 0x8, addend: 0x0, symName: __ZNSt3__14swapB7v160006IPNS_19__shared_weak_countEEEvRT_S4_, symObjAddr: 0x1051C, symBinAddr: 0x100011EE0, symSize: 0x3C }
  - { offsetInCU: 0x1F995, offset: 0x1F995, size: 0x8, addend: 0x0, symName: __ZNSt3__119__debug_db_insert_cB7v160006INS_6vectorI4CardNS_9allocatorIS2_EEEEEEvPT_, symObjAddr: 0x105E0, symBinAddr: 0x100011FA4, symSize: 0x10 }
  - { offsetInCU: 0x1F9C6, offset: 0x1F9C6, size: 0x8, addend: 0x0, symName: __ZNSt3__118__debug_db_erase_cB7v160006INS_6vectorI4CardNS_9allocatorIS2_EEEEEEvPT_, symObjAddr: 0x108B8, symBinAddr: 0x10001227C, symSize: 0x10 }
  - { offsetInCU: 0x1F9F7, offset: 0x1F9F7, size: 0x8, addend: 0x0, symName: __ZNSt3__112__to_addressB7v160006I4CardEEPT_S3_, symObjAddr: 0x109D4, symBinAddr: 0x100012398, symSize: 0x14 }
  - { offsetInCU: 0x1FA2C, offset: 0x1FA2C, size: 0x8, addend: 0x0, symName: __ZNSt3__1neB7v160006ERKNS_21__hash_const_iteratorIPNS_11__hash_nodeINS_17__hash_value_typeINS_12basic_stringIcNS_11char_traitsIcEENS_9allocatorIcEEEENS_10shared_ptrIN2sf7TextureEEEEEPvEEEESJ_, symObjAddr: 0x11040, symBinAddr: 0x100012A04, symSize: 0x34 }
  - { offsetInCU: 0x1FA6A, offset: 0x1FA6A, size: 0x8, addend: 0x0, symName: __ZNSt3__1eqB7v160006ERKNS_21__hash_const_iteratorIPNS_11__hash_nodeINS_17__hash_value_typeINS_12basic_stringIcNS_11char_traitsIcEENS_9allocatorIcEEEENS_10shared_ptrIN2sf7TextureEEEEEPvEEEESJ_, symObjAddr: 0x11074, symBinAddr: 0x100012A38, symSize: 0x30 }
  - { offsetInCU: 0x1FAA7, offset: 0x1FAA7, size: 0x8, addend: 0x0, symName: __ZNSt3__1eqB7v160006ERKNS_25__hash_map_const_iteratorINS_21__hash_const_iteratorIPNS_11__hash_nodeINS_17__hash_value_typeINS_12basic_stringIcNS_11char_traitsIcEENS_9allocatorIcEEEENS_10shared_ptrIN2sf7TextureEEEEEPvEEEEEESL_, symObjAddr: 0x110A4, symBinAddr: 0x100012A68, symSize: 0x30 }
  - { offsetInCU: 0x1FAE5, offset: 0x1FAE5, size: 0x8, addend: 0x0, symName: __ZNSt3__120__throw_out_of_rangeB7v160006EPKc, symObjAddr: 0x110D4, symBinAddr: 0x100012A98, symSize: 0x64 }
  - { offsetInCU: 0x1FB75, offset: 0x1FB75, size: 0x8, addend: 0x0, symName: __ZNSt3__119__allocate_at_leastB7v160006INS_9allocatorI4CardEEEENS_19__allocation_resultINS_16allocator_traitsIT_E7pointerEEERS6_m, symObjAddr: 0x11CB8, symBinAddr: 0x10001367C, symSize: 0x40 }
  - { offsetInCU: 0x1FBB8, offset: 0x1FBB8, size: 0x8, addend: 0x0, symName: __ZNSt3__142__uninitialized_allocator_move_if_noexceptB7v160006INS_9allocatorI4CardEENS_16reverse_iteratorIPS2_EES6_S6_EET2_RT_T0_T1_S7_, symObjAddr: 0x11EA0, symBinAddr: 0x100013864, symSize: 0x134 }
  - { offsetInCU: 0x1FC59, offset: 0x1FC59, size: 0x8, addend: 0x0, symName: __ZNSt3__14swapB7v160006IP4CardEEvRT_S4_, symObjAddr: 0x12020, symBinAddr: 0x1000139E4, symSize: 0x3C }
  - { offsetInCU: 0x1FCAB, offset: 0x1FCAB, size: 0x8, addend: 0x0, symName: __ZNSt3__125__debug_db_invalidate_allB7v160006INS_6vectorI4CardNS_9allocatorIS2_EEEEEEvPT_, symObjAddr: 0x12124, symBinAddr: 0x100013AE8, symSize: 0x10 }
  - { offsetInCU: 0x1FCDB, offset: 0x1FCDB, size: 0x8, addend: 0x0, symName: __ZNSt3__122__make_exception_guardB7v160006INS_29_AllocatorDestroyRangeReverseINS_9allocatorI4CardEENS_16reverse_iteratorIPS3_EEEEEENS_28__exception_guard_exceptionsIT_EESA_, symObjAddr: 0x12134, symBinAddr: 0x100013AF8, symSize: 0x4C }
  - { offsetInCU: 0x1FD11, offset: 0x1FD11, size: 0x8, addend: 0x0, symName: __ZNSt3__1neB7v160006IP4CardS2_EEbRKNS_16reverse_iteratorIT_EERKNS3_IT0_EE, symObjAddr: 0x121C4, symBinAddr: 0x100013B88, symSize: 0x48 }
  - { offsetInCU: 0x1FD5D, offset: 0x1FD5D, size: 0x8, addend: 0x0, symName: __ZNSt3__112__to_addressB7v160006INS_16reverse_iteratorIP4CardEEvEENS_5decayIDTclsr19__to_address_helperIT_EE6__callclsr3stdE7declvalIRKS6_EEEEE4typeES8_, symObjAddr: 0x12240, symBinAddr: 0x100013C04, symSize: 0x24 }
  - { offsetInCU: 0x1FDBE, offset: 0x1FDBE, size: 0x8, addend: 0x0, symName: __ZNSt3__119__allocator_destroyB7v160006INS_9allocatorI4CardEENS_16reverse_iteratorINS4_IPS2_EEEES7_EEvRT_T0_T1_, symObjAddr: 0x126C8, symBinAddr: 0x10001408C, symSize: 0x70 }
  - { offsetInCU: 0x1FE22, offset: 0x1FE22, size: 0x8, addend: 0x0, symName: __ZNSt3__1neB7v160006INS_16reverse_iteratorIP4CardEES4_EEbRKNS1_IT_EERKNS1_IT0_EE, symObjAddr: 0x12774, symBinAddr: 0x100014138, symSize: 0x60 }
  - { offsetInCU: 0x1FE6E, offset: 0x1FE6E, size: 0x8, addend: 0x0, symName: __ZNSt3__112__to_addressB7v160006INS_16reverse_iteratorINS1_IP4CardEEEEvEENS_5decayIDTclsr19__to_address_helperIT_EE6__callclsr3stdE7declvalIRKS7_EEEEE4typeES9_, symObjAddr: 0x127D4, symBinAddr: 0x100014198, symSize: 0x24 }
  - { offsetInCU: 0x1FF59, offset: 0x1FF59, size: 0x8, addend: 0x0, symName: __ZNSt3__1miB7v160006IP4CardS2_EENS_11__wrap_iterIT_E15difference_typeERKS5_RKNS3_IT0_EE, symObjAddr: 0x12E64, symBinAddr: 0x100014828, symSize: 0x48 }
  - { offsetInCU: 0x1FFA5, offset: 0x1FFA5, size: 0x8, addend: 0x0, symName: __ZNSt3__1ltB7v160006IP4CardEEbRKNS_11__wrap_iterIT_EES7_, symObjAddr: 0x12F08, symBinAddr: 0x1000148CC, symSize: 0x48 }
  - { offsetInCU: 0x1FFE8, offset: 0x1FFE8, size: 0x8, addend: 0x0, symName: __ZNSt3__113__countl_zeroB7v160006ImEEiT_, symObjAddr: 0x13264, symBinAddr: 0x100014C28, symSize: 0x54 }
  - { offsetInCU: 0x2001E, offset: 0x2001E, size: 0x8, addend: 0x0, symName: __ZNSt3__19iter_swapB7v160006INS_11__wrap_iterIP4CardEES4_EEvT_T0_, symObjAddr: 0x1390C, symBinAddr: 0x1000152D0, symSize: 0x50 }
  - { offsetInCU: 0x20065, offset: 0x20065, size: 0x8, addend: 0x0, symName: __ZNSt3__14swapB7v160006I4CardEEvRT_S3_, symObjAddr: 0x1395C, symBinAddr: 0x100015320, symSize: 0x94 }
  - { offsetInCU: 0x200B6, offset: 0x200B6, size: 0x8, addend: 0x0, symName: __ZNSt3__1eqB7v160006IPK4CardEEbRKNS_11__wrap_iterIT_EES8_, symObjAddr: 0x13C3C, symBinAddr: 0x100015600, symSize: 0x48 }
  - { offsetInCU: 0x200FA, offset: 0x200FA, size: 0x8, addend: 0x0, symName: __ZNSt3__115__debug_db_swapB7v160006INS_6vectorI4CardNS_9allocatorIS2_EEEEEEvPT_S7_, symObjAddr: 0x13EF4, symBinAddr: 0x1000158B8, symSize: 0x14 }
  - { offsetInCU: 0x20139, offset: 0x20139, size: 0x8, addend: 0x0, symName: __ZNSt3__125__debug_db_invalidate_allB7v160006INS_12basic_stringIcNS_11char_traitsIcEENS_9allocatorIcEEEEEEvPT_, symObjAddr: 0x14248, symBinAddr: 0x100015C0C, symSize: 0x10 }
  - { offsetInCU: 0x20169, offset: 0x20169, size: 0x8, addend: 0x0, symName: __ZNSt3__1eqB7v160006IP4CardEEbRKNS_11__wrap_iterIT_EES7_, symObjAddr: 0x1427C, symBinAddr: 0x100015C40, symSize: 0x48 }
  - { offsetInCU: 0x21448, offset: 0x21448, size: 0x8, addend: 0x0, symName: __ZSt28__throw_bad_array_new_lengthB7v160006v, symObjAddr: 0x9684, symBinAddr: 0x10000B048, symSize: 0x34 }
  - { offsetInCU: 0x238F7, offset: 0x238F7, size: 0x8, addend: 0x0, symName: __ZNSt3__16vectorI4CardNS_9allocatorIS1_EEE26__swap_out_circular_bufferERNS_14__split_bufferIS1_RS3_EE, symObjAddr: 0x11924, symBinAddr: 0x1000132E8, symSize: 0x118 }
  - { offsetInCU: 0x239DE, offset: 0x239DE, size: 0x8, addend: 0x0, symName: __ZNSt3__124uniform_int_distributionIlEclINS_23mersenne_twister_engineIjLm32ELm624ELm397ELm31ELj2567483615ELm11ELj4294967295ELm7ELj2636928640ELm15ELj4022730752ELm18ELj1812433253EEEEElRT_RKNS1_10param_typeE, symObjAddr: 0x12F50, symBinAddr: 0x100014914, symSize: 0x174 }
  - { offsetInCU: 0x25C39, offset: 0x25C39, size: 0x8, addend: 0x0, symName: __Z15preloadTexturesv, symObjAddr: 0x0, symBinAddr: 0x1000019C4, symSize: 0x7E4 }
  - { offsetInCU: 0x25D34, offset: 0x25D34, size: 0x8, addend: 0x0, symName: __ZNSt3__113unordered_mapINS_12basic_stringIcNS_11char_traitsIcEENS_9allocatorIcEEEENS_10shared_ptrIN2sf7TextureEEENS_4hashIS6_EENS_8equal_toIS6_EENS4_INS_4pairIKS6_SA_EEEEEC1B7v160006Ev, symObjAddr: 0x7E4, symBinAddr: 0x1000021A8, symSize: 0x2C }
  - { offsetInCU: 0x25D64, offset: 0x25D64, size: 0x8, addend: 0x0, symName: __ZNSt3__112basic_stringIcNS_11char_traitsIcEENS_9allocatorIcEEEC1B7v160006IDnEEPKc, symObjAddr: 0x810, symBinAddr: 0x1000021D4, symSize: 0x34 }
  - { offsetInCU: 0x25DA2, offset: 0x25DA2, size: 0x8, addend: 0x0, symName: __ZNKSt3__110shared_ptrIN2sf7TextureEEptB7v160006Ev, symObjAddr: 0xAD8, symBinAddr: 0x10000249C, symSize: 0x18 }
  - { offsetInCU: 0x25DC8, offset: 0x25DC8, size: 0x8, addend: 0x0, symName: __ZN2sf4RectIiEC1Ev, symObjAddr: 0xAF0, symBinAddr: 0x1000024B4, symSize: 0x2C }
  - { offsetInCU: 0x25DF4, offset: 0x25DF4, size: 0x8, addend: 0x0, symName: __ZNSt3__113basic_ostreamIcNS_11char_traitsIcEEElsB7v160006EPFRS3_S4_E, symObjAddr: 0xBB0, symBinAddr: 0x100002574, symSize: 0x2C }
  - { offsetInCU: 0x25E28, offset: 0x25E28, size: 0x8, addend: 0x0, symName: __ZNSt3__113unordered_mapINS_12basic_stringIcNS_11char_traitsIcEENS_9allocatorIcEEEENS_10shared_ptrIN2sf7TextureEEENS_4hashIS6_EENS_8equal_toIS6_EENS4_INS_4pairIKS6_SA_EEEEEixERSG_, symObjAddr: 0xC34, symBinAddr: 0x1000025F8, symSize: 0x128 }
  - { offsetInCU: 0x25E8D, offset: 0x25E8D, size: 0x8, addend: 0x0, symName: __ZNSt3__110shared_ptrIN2sf7TextureEEaSB7v160006ERKS3_, symObjAddr: 0xD5C, symBinAddr: 0x100002720, symSize: 0x6C }
  - { offsetInCU: 0x25EC2, offset: 0x25EC2, size: 0x8, addend: 0x0, symName: __ZNSt3__110shared_ptrIN2sf7TextureEED1B7v160006Ev, symObjAddr: 0xDC8, symBinAddr: 0x10000278C, symSize: 0x2C }
  - { offsetInCU: 0x25EEC, offset: 0x25EEC, size: 0x8, addend: 0x0, symName: __ZNSt3__113unordered_mapINS_12basic_stringIcNS_11char_traitsIcEENS_9allocatorIcEEEENS_10shared_ptrIN2sf7TextureEEENS_4hashIS6_EENS_8equal_toIS6_EENS4_INS_4pairIKS6_SA_EEEEED1B7v160006Ev, symObjAddr: 0xDF4, symBinAddr: 0x1000027B8, symSize: 0x2C }
  - { offsetInCU: 0x25F15, offset: 0x25F15, size: 0x8, addend: 0x0, symName: __Z10createDeckRKNSt3__113unordered_mapINS_12basic_stringIcNS_11char_traitsIcEENS_9allocatorIcEEEENS_10shared_ptrIN2sf7TextureEEENS_4hashIS6_EENS_8equal_toIS6_EENS4_INS_4pairIKS6_SA_EEEEEE, symObjAddr: 0xE20, symBinAddr: 0x1000027E4, symSize: 0x810 }
  - { offsetInCU: 0x2600D, offset: 0x2600D, size: 0x8, addend: 0x0, symName: __ZNSt3__16vectorI4CardNS_9allocatorIS1_EEEC1B7v160006Ev, symObjAddr: 0x1630, symBinAddr: 0x100002FF4, symSize: 0x2C }
  - { offsetInCU: 0x26037, offset: 0x26037, size: 0x8, addend: 0x0, symName: __ZNKSt3__113unordered_mapINS_12basic_stringIcNS_11char_traitsIcEENS_9allocatorIcEEEENS_10shared_ptrIN2sf7TextureEEENS_4hashIS6_EENS_8equal_toIS6_EENS4_INS_4pairIKS6_SA_EEEEE4findB7v160006ERSG_, symObjAddr: 0x168C, symBinAddr: 0x100003050, symSize: 0x40 }
  - { offsetInCU: 0x2606C, offset: 0x2606C, size: 0x8, addend: 0x0, symName: __ZNKSt3__113unordered_mapINS_12basic_stringIcNS_11char_traitsIcEENS_9allocatorIcEEEENS_10shared_ptrIN2sf7TextureEEENS_4hashIS6_EENS_8equal_toIS6_EENS4_INS_4pairIKS6_SA_EEEEE3endB7v160006Ev, symObjAddr: 0x16CC, symBinAddr: 0x100003090, symSize: 0x38 }
  - { offsetInCU: 0x2609E, offset: 0x2609E, size: 0x8, addend: 0x0, symName: __ZNSt3__16vectorI4CardNS_9allocatorIS1_EEE12emplace_backIJRNS_12basic_stringIcNS_11char_traitsIcEENS2_IcEEEERKSA_RiRKNS_10shared_ptrIN2sf7TextureEEEEEEvDpOT_, symObjAddr: 0x1704, symBinAddr: 0x1000030C8, symSize: 0x90 }
  - { offsetInCU: 0x2611C, offset: 0x2611C, size: 0x8, addend: 0x0, symName: __ZNKSt3__113unordered_mapINS_12basic_stringIcNS_11char_traitsIcEENS_9allocatorIcEEEENS_10shared_ptrIN2sf7TextureEEENS_4hashIS6_EENS_8equal_toIS6_EENS4_INS_4pairIKS6_SA_EEEEE2atERSG_, symObjAddr: 0x1794, symBinAddr: 0x100003158, symSize: 0x7C }
  - { offsetInCU: 0x26162, offset: 0x26162, size: 0x8, addend: 0x0, symName: __ZNSt3__123mersenne_twister_engineIjLm32ELm624ELm397ELm31ELj2567483615ELm11ELj4294967295ELm7ELj2636928640ELm15ELj4022730752ELm18ELj1812433253EEC1B7v160006Ej, symObjAddr: 0x1810, symBinAddr: 0x1000031D4, symSize: 0x34 }
  - { offsetInCU: 0x2619A, offset: 0x2619A, size: 0x8, addend: 0x0, symName: __ZNSt3__16vectorI4CardNS_9allocatorIS1_EEE5beginB7v160006Ev, symObjAddr: 0x188C, symBinAddr: 0x100003250, symSize: 0x30 }
  - { offsetInCU: 0x261C2, offset: 0x261C2, size: 0x8, addend: 0x0, symName: __ZNSt3__16vectorI4CardNS_9allocatorIS1_EEE3endB7v160006Ev, symObjAddr: 0x18BC, symBinAddr: 0x100003280, symSize: 0x30 }
  - { offsetInCU: 0x261EA, offset: 0x261EA, size: 0x8, addend: 0x0, symName: __ZNSt3__16vectorI4CardNS_9allocatorIS1_EEED1B7v160006Ev, symObjAddr: 0x18EC, symBinAddr: 0x1000032B0, symSize: 0x2C }
  - { offsetInCU: 0x26213, offset: 0x26213, size: 0x8, addend: 0x0, symName: __Z18calculateHandValueRKNSt3__16vectorI4CardNS_9allocatorIS1_EEEE, symObjAddr: 0x1918, symBinAddr: 0x1000032DC, symSize: 0x114 }
  - { offsetInCU: 0x262AD, offset: 0x262AD, size: 0x8, addend: 0x0, symName: __ZNKSt3__16vectorI4CardNS_9allocatorIS1_EEE5beginB7v160006Ev, symObjAddr: 0x1A2C, symBinAddr: 0x1000033F0, symSize: 0x30 }
  - { offsetInCU: 0x262D5, offset: 0x262D5, size: 0x8, addend: 0x0, symName: __ZNKSt3__16vectorI4CardNS_9allocatorIS1_EEE3endB7v160006Ev, symObjAddr: 0x1A5C, symBinAddr: 0x100003420, symSize: 0x30 }
  - { offsetInCU: 0x262FD, offset: 0x262FD, size: 0x8, addend: 0x0, symName: __ZNKSt3__111__wrap_iterIPK4CardEdeB7v160006Ev, symObjAddr: 0x1AC0, symBinAddr: 0x100003484, symSize: 0x18 }
  - { offsetInCU: 0x26323, offset: 0x26323, size: 0x8, addend: 0x0, symName: __ZNSt3__111__wrap_iterIPK4CardEppB7v160006Ev, symObjAddr: 0x1B98, symBinAddr: 0x10000355C, symSize: 0x20 }
  - { offsetInCU: 0x26348, offset: 0x26348, size: 0x8, addend: 0x0, symName: __Z15determineWinnerRKNSt3__16vectorI4CardNS_9allocatorIS1_EEEES6_, symObjAddr: 0x1BB8, symBinAddr: 0x10000357C, symSize: 0xFC }
  - { offsetInCU: 0x2639F, offset: 0x2639F, size: 0x8, addend: 0x0, symName: __Z19adjustCardPositionsRNSt3__16vectorI4CardNS_9allocatorIS1_EEEES5_RKN2sf7Vector2IjEE, symObjAddr: 0x1CB4, symBinAddr: 0x100003678, symSize: 0x1E4 }
  - { offsetInCU: 0x26462, offset: 0x26462, size: 0x8, addend: 0x0, symName: __ZNKSt3__16vectorI4CardNS_9allocatorIS1_EEE4sizeB7v160006Ev, symObjAddr: 0x1E98, symBinAddr: 0x10000385C, symSize: 0x28 }
  - { offsetInCU: 0x26488, offset: 0x26488, size: 0x8, addend: 0x0, symName: __ZNSt3__16vectorI4CardNS_9allocatorIS1_EEEixB7v160006Em, symObjAddr: 0x1EC0, symBinAddr: 0x100003884, symSize: 0x2C }
  - { offsetInCU: 0x264BF, offset: 0x264BF, size: 0x8, addend: 0x0, symName: __ZN4Card11setPositionERKN2sf7Vector2IfEE, symObjAddr: 0x1EEC, symBinAddr: 0x1000038B0, symSize: 0x30 }
  - { offsetInCU: 0x264F3, offset: 0x264F3, size: 0x8, addend: 0x0, symName: __ZN2sf7Vector2IfEC1Eff, symObjAddr: 0x1F1C, symBinAddr: 0x1000038E0, symSize: 0x3C }
  - { offsetInCU: 0x2653B, offset: 0x2653B, size: 0x8, addend: 0x0, symName: __Z9drawTableRN2sf12RenderWindowERNS_4FontERKNS_7Vector2IjEERKNSt3__16vectorI4CardNS8_9allocatorISA_EEEESF_, symObjAddr: 0x1F58, symBinAddr: 0x10000391C, symSize: 0x8AC }
  - { offsetInCU: 0x26604, offset: 0x26604, size: 0x8, addend: 0x0, symName: __ZN2sf6StringD1Ev, symObjAddr: 0x2804, symBinAddr: 0x1000041C8, symSize: 0x2C }
  - { offsetInCU: 0x26630, offset: 0x26630, size: 0x8, addend: 0x0, symName: __ZN2sf4TextD1Ev, symObjAddr: 0x2830, symBinAddr: 0x1000041F4, symSize: 0x2C }
  - { offsetInCU: 0x2667E, offset: 0x2667E, size: 0x8, addend: 0x0, symName: __ZN2sf14RectangleShapeD1Ev, symObjAddr: 0x285C, symBinAddr: 0x100004220, symSize: 0x2C }
  - { offsetInCU: 0x266AA, offset: 0x266AA, size: 0x8, addend: 0x0, symName: __Z11drawButtonsRN2sf12RenderWindowERNS_4FontEbRKNS_7Vector2IjEE, symObjAddr: 0x2888, symBinAddr: 0x10000424C, symSize: 0x8F4 }
  - { offsetInCU: 0x2679B, offset: 0x2679B, size: 0x8, addend: 0x0, symName: __Z9resetGameRNSt3__16vectorI4CardNS_9allocatorIS1_EEEES5_S5_RKNS_13unordered_mapINS_12basic_stringIcNS_11char_traitsIcEENS2_IcEEEENS_10shared_ptrIN2sf7TextureEEENS_4hashISB_EENS_8equal_toISB_EENS2_INS_4pairIKSB_SF_EEEEEERKNSD_7Vector2IjEE, symObjAddr: 0x317C, symBinAddr: 0x100004B40, symSize: 0x12C }
  - { offsetInCU: 0x267FB, offset: 0x267FB, size: 0x8, addend: 0x0, symName: __ZNSt3__16vectorI4CardNS_9allocatorIS1_EEE5clearB7v160006Ev, symObjAddr: 0x32A8, symBinAddr: 0x100004C6C, symSize: 0x4C }
  - { offsetInCU: 0x26830, offset: 0x26830, size: 0x8, addend: 0x0, symName: __ZNSt3__16vectorI4CardNS_9allocatorIS1_EEEaSB7v160006EOS4_, symObjAddr: 0x32F4, symBinAddr: 0x100004CB8, symSize: 0x34 }
  - { offsetInCU: 0x26867, offset: 0x26867, size: 0x8, addend: 0x0, symName: __ZNSt3__16vectorI4CardNS_9allocatorIS1_EEE9push_backB7v160006ERKS1_, symObjAddr: 0x3328, symBinAddr: 0x100004CEC, symSize: 0x6C }
  - { offsetInCU: 0x2689E, offset: 0x2689E, size: 0x8, addend: 0x0, symName: __ZNSt3__16vectorI4CardNS_9allocatorIS1_EEE4backB7v160006Ev, symObjAddr: 0x3394, symBinAddr: 0x100004D58, symSize: 0x1C }
  - { offsetInCU: 0x268C4, offset: 0x268C4, size: 0x8, addend: 0x0, symName: __ZNSt3__16vectorI4CardNS_9allocatorIS1_EEE8pop_backEv, symObjAddr: 0x33B0, symBinAddr: 0x100004D74, symSize: 0x2C }
  - { offsetInCU: 0x268EC, offset: 0x268EC, size: 0x8, addend: 0x0, symName: __Z14resetGameStateR9GameStateRN2sf6SpriteES3_S3_S3_RbS4_S4_S4_RNS1_7Vector2IfEE, symObjAddr: 0x33DC, symBinAddr: 0x100004DA0, symSize: 0xB4 }
  - { offsetInCU: 0x26992, offset: 0x26992, size: 0x8, addend: 0x0, symName: __Z12resetHitCardRN2sf6SpriteERbRKNS_7Vector2IfEES2_, symObjAddr: 0x3490, symBinAddr: 0x100004E54, symSize: 0x48 }
  - { offsetInCU: 0x269E9, offset: 0x269E9, size: 0x8, addend: 0x0, symName: __Z11hitGetACardRN2sf12RenderWindowERNS_4FontERKNS_7Vector2IjEERNS_6ShaderERNS_13RenderTextureERKNS_7TextureERKNSt3__16vectorI4CardNSF_9allocatorISH_EEEESM_RbRNS_6SpriteENS_14RectangleShapeENS_4TextESP_SN_RKNS4_IfEESN_SU_ff, symObjAddr: 0x34D8, symBinAddr: 0x100004E9C, symSize: 0x4A4 }
  - { offsetInCU: 0x26C2C, offset: 0x26C2C, size: 0x8, addend: 0x0, symName: __ZN2sf6SpriteD1Ev, symObjAddr: 0x397C, symBinAddr: 0x100005340, symSize: 0x2C }
  - { offsetInCU: 0x26C58, offset: 0x26C58, size: 0x8, addend: 0x0, symName: __ZNK4Card4drawERN2sf12RenderWindowE, symObjAddr: 0x39A8, symBinAddr: 0x10000536C, symSize: 0x3C }
  - { offsetInCU: 0x26C8C, offset: 0x26C8C, size: 0x8, addend: 0x0, symName: __Z4sqrtB7v160006f, symObjAddr: 0x3A3C, symBinAddr: 0x100005400, symSize: 0x18 }
  - { offsetInCU: 0x26CBB, offset: 0x26CBB, size: 0x8, addend: 0x0, symName: __Z13drawPauseMenuRN2sf12RenderWindowERNS_4FontERKNS_7Vector2IjEERNS_6ShaderERNS_13RenderTextureERKNS_7TextureERKNSt3__16vectorI4CardNSF_9allocatorISH_EEEESM_RbRNS_6SpriteE, symObjAddr: 0x3AA4, symBinAddr: 0x100005468, symSize: 0xABC }
  - { offsetInCU: 0x26E9C, offset: 0x26E9C, size: 0x8, addend: 0x0, symName: _main, symObjAddr: 0x4560, symBinAddr: 0x100005F24, symSize: 0x3680 }
  - { offsetInCU: 0x27532, offset: 0x27532, size: 0x8, addend: 0x0, symName: __ZN2sf15ContextSettingsC1Ejjjjjjb, symObjAddr: 0x7BE0, symBinAddr: 0x1000095A4, symSize: 0x70 }
  - { offsetInCU: 0x275BE, offset: 0x275BE, size: 0x8, addend: 0x0, symName: __ZNSt3__112basic_stringIcNS_11char_traitsIcEENS_9allocatorIcEEEC1B7v160006Ev, symObjAddr: 0x7C50, symBinAddr: 0x100009614, symSize: 0x2C }
  - { offsetInCU: 0x275E8, offset: 0x275E8, size: 0x8, addend: 0x0, symName: __ZNKSt3__16vectorI4CardNS_9allocatorIS1_EEE5emptyB7v160006Ev, symObjAddr: 0x7C7C, symBinAddr: 0x100009640, symSize: 0x28 }
  - { offsetInCU: 0x2760E, offset: 0x2760E, size: 0x8, addend: 0x0, symName: __ZNSt3__112basic_stringIcNS_11char_traitsIcEENS_9allocatorIcEEEaSB7v160006EPKc, symObjAddr: 0x7CA4, symBinAddr: 0x100009668, symSize: 0x2C }
  - { offsetInCU: 0x27643, offset: 0x27643, size: 0x8, addend: 0x0, symName: __ZNSt3__112basic_stringIcNS_11char_traitsIcEENS_9allocatorIcEEE5clearB7v160006Ev, symObjAddr: 0x7CD0, symBinAddr: 0x100009694, symSize: 0x9C }
  - { offsetInCU: 0x27671, offset: 0x27671, size: 0x8, addend: 0x0, symName: __ZN2sf14RectangleShapeC1ERKS0_, symObjAddr: 0x7D6C, symBinAddr: 0x100009730, symSize: 0x34 }
  - { offsetInCU: 0x276AC, offset: 0x276AC, size: 0x8, addend: 0x0, symName: __ZN2sf4TextC1ERKS0_, symObjAddr: 0x7DA0, symBinAddr: 0x100009764, symSize: 0x34 }
  - { offsetInCU: 0x276E1, offset: 0x276E1, size: 0x8, addend: 0x0, symName: __ZNKSt3__111__wrap_iterIP4CardEdeB7v160006Ev, symObjAddr: 0x7E08, symBinAddr: 0x1000097CC, symSize: 0x18 }
  - { offsetInCU: 0x27707, offset: 0x27707, size: 0x8, addend: 0x0, symName: __ZNSt3__111__wrap_iterIP4CardEppB7v160006Ev, symObjAddr: 0x7E20, symBinAddr: 0x1000097E4, symSize: 0x20 }
  - { offsetInCU: 0x2772D, offset: 0x2772D, size: 0x8, addend: 0x0, symName: __ZNKSt3__112basic_stringIcNS_11char_traitsIcEENS_9allocatorIcEEE5emptyB7v160006Ev, symObjAddr: 0x7E40, symBinAddr: 0x100009804, symSize: 0x30 }
  - { offsetInCU: 0x27753, offset: 0x27753, size: 0x8, addend: 0x0, symName: __ZN2sf6StringD2Ev, symObjAddr: 0x7E70, symBinAddr: 0x100009834, symSize: 0x2C }
  - { offsetInCU: 0x2777F, offset: 0x2777F, size: 0x8, addend: 0x0, symName: __ZNSt3__112basic_stringIjNS_11char_traitsIjEENS_9allocatorIjEEED1Ev, symObjAddr: 0x7E9C, symBinAddr: 0x100009860, symSize: 0x2C }
  - { offsetInCU: 0x277AB, offset: 0x277AB, size: 0x8, addend: 0x0, symName: __ZNSt3__112basic_stringIjNS_11char_traitsIjEENS_9allocatorIjEEED2Ev, symObjAddr: 0x7EC8, symBinAddr: 0x10000988C, symSize: 0x7C }
  - { offsetInCU: 0x277D7, offset: 0x277D7, size: 0x8, addend: 0x0, symName: __ZNKSt3__112basic_stringIjNS_11char_traitsIjEENS_9allocatorIjEEE9__is_longB7v160006Ev, symObjAddr: 0x7F54, symBinAddr: 0x100009918, symSize: 0x74 }
  - { offsetInCU: 0x277FD, offset: 0x277FD, size: 0x8, addend: 0x0, symName: __ZNSt3__116allocator_traitsINS_9allocatorIjEEE10deallocateB7v160006ERS2_Pjm, symObjAddr: 0x7FC8, symBinAddr: 0x10000998C, symSize: 0x34 }
  - { offsetInCU: 0x2783F, offset: 0x2783F, size: 0x8, addend: 0x0, symName: __ZNSt3__112basic_stringIjNS_11char_traitsIjEENS_9allocatorIjEEE7__allocB7v160006Ev, symObjAddr: 0x7FFC, symBinAddr: 0x1000099C0, symSize: 0x24 }
  - { offsetInCU: 0x27865, offset: 0x27865, size: 0x8, addend: 0x0, symName: __ZNSt3__112basic_stringIjNS_11char_traitsIjEENS_9allocatorIjEEE18__get_long_pointerB7v160006Ev, symObjAddr: 0x8020, symBinAddr: 0x1000099E4, symSize: 0x28 }
  - { offsetInCU: 0x2788B, offset: 0x2788B, size: 0x8, addend: 0x0, symName: __ZNKSt3__112basic_stringIjNS_11char_traitsIjEENS_9allocatorIjEEE14__get_long_capB7v160006Ev, symObjAddr: 0x8048, symBinAddr: 0x100009A0C, symSize: 0x30 }
  - { offsetInCU: 0x278B1, offset: 0x278B1, size: 0x8, addend: 0x0, symName: __ZNKSt3__117__compressed_pairINS_12basic_stringIjNS_11char_traitsIjEENS_9allocatorIjEEE5__repES5_E5firstB7v160006Ev, symObjAddr: 0x8084, symBinAddr: 0x100009A48, symSize: 0x24 }
  - { offsetInCU: 0x278D7, offset: 0x278D7, size: 0x8, addend: 0x0, symName: __ZNKSt3__122__compressed_pair_elemINS_12basic_stringIjNS_11char_traitsIjEENS_9allocatorIjEEE5__repELi0ELb0EE5__getB7v160006Ev, symObjAddr: 0x80A8, symBinAddr: 0x100009A6C, symSize: 0x14 }
  - { offsetInCU: 0x278FD, offset: 0x278FD, size: 0x8, addend: 0x0, symName: __ZNSt3__19allocatorIjE10deallocateB7v160006EPjm, symObjAddr: 0x80BC, symBinAddr: 0x100009A80, symSize: 0x70 }
  - { offsetInCU: 0x2793F, offset: 0x2793F, size: 0x8, addend: 0x0, symName: __ZNSt3__117__compressed_pairINS_12basic_stringIjNS_11char_traitsIjEENS_9allocatorIjEEE5__repES5_E6secondB7v160006Ev, symObjAddr: 0x81A8, symBinAddr: 0x100009B6C, symSize: 0x24 }
  - { offsetInCU: 0x27965, offset: 0x27965, size: 0x8, addend: 0x0, symName: __ZNSt3__122__compressed_pair_elemINS_9allocatorIjEELi1ELb1EE5__getB7v160006Ev, symObjAddr: 0x81CC, symBinAddr: 0x100009B90, symSize: 0x14 }
  - { offsetInCU: 0x2798B, offset: 0x2798B, size: 0x8, addend: 0x0, symName: __ZNSt3__117__compressed_pairINS_12basic_stringIjNS_11char_traitsIjEENS_9allocatorIjEEE5__repES5_E5firstB7v160006Ev, symObjAddr: 0x81E0, symBinAddr: 0x100009BA4, symSize: 0x24 }
  - { offsetInCU: 0x279B1, offset: 0x279B1, size: 0x8, addend: 0x0, symName: __ZNSt3__122__compressed_pair_elemINS_12basic_stringIjNS_11char_traitsIjEENS_9allocatorIjEEE5__repELi0ELb0EE5__getB7v160006Ev, symObjAddr: 0x8204, symBinAddr: 0x100009BC8, symSize: 0x14 }
  - { offsetInCU: 0x279D7, offset: 0x279D7, size: 0x8, addend: 0x0, symName: __ZN2sf4TextD2Ev, symObjAddr: 0x8218, symBinAddr: 0x100009BDC, symSize: 0x118 }
  - { offsetInCU: 0x27A03, offset: 0x27A03, size: 0x8, addend: 0x0, symName: __ZThn8_N2sf4TextD1Ev, symObjAddr: 0x8330, symBinAddr: 0x100009CF4, symSize: 0x1C }
  - { offsetInCU: 0x27A19, offset: 0x27A19, size: 0x8, addend: 0x0, symName: __ZN2sf11VertexArrayD1Ev, symObjAddr: 0x834C, symBinAddr: 0x100009D10, symSize: 0x2C }
  - { offsetInCU: 0x27A45, offset: 0x27A45, size: 0x8, addend: 0x0, symName: __ZN2sf8DrawableD2Ev, symObjAddr: 0x8378, symBinAddr: 0x100009D3C, symSize: 0x14 }
  - { offsetInCU: 0x27A6F, offset: 0x27A6F, size: 0x8, addend: 0x0, symName: __ZN2sf11VertexArrayD2Ev, symObjAddr: 0x838C, symBinAddr: 0x100009D50, symSize: 0x78 }
  - { offsetInCU: 0x27A9B, offset: 0x27A9B, size: 0x8, addend: 0x0, symName: __ZNSt3__16vectorIN2sf6VertexENS_9allocatorIS2_EEED1B7v160006Ev, symObjAddr: 0x8404, symBinAddr: 0x100009DC8, symSize: 0x2C }
  - { offsetInCU: 0x27AC5, offset: 0x27AC5, size: 0x8, addend: 0x0, symName: __ZNSt3__16vectorIN2sf6VertexENS_9allocatorIS2_EEED2B7v160006Ev, symObjAddr: 0x8430, symBinAddr: 0x100009DF4, symSize: 0x3C }
  - { offsetInCU: 0x27AEF, offset: 0x27AEF, size: 0x8, addend: 0x0, symName: __ZNSt3__16vectorIN2sf6VertexENS_9allocatorIS2_EEE16__destroy_vectorC1ERS5_, symObjAddr: 0x846C, symBinAddr: 0x100009E30, symSize: 0x34 }
  - { offsetInCU: 0x27B28, offset: 0x27B28, size: 0x8, addend: 0x0, symName: __ZNSt3__16vectorIN2sf6VertexENS_9allocatorIS2_EEE16__destroy_vectorclB7v160006Ev, symObjAddr: 0x84A0, symBinAddr: 0x100009E64, symSize: 0x9C }
  - { offsetInCU: 0x27B4E, offset: 0x27B4E, size: 0x8, addend: 0x0, symName: __ZNSt3__16vectorIN2sf6VertexENS_9allocatorIS2_EEE16__destroy_vectorC2ERS5_, symObjAddr: 0x853C, symBinAddr: 0x100009F00, symSize: 0x20 }
  - { offsetInCU: 0x27B87, offset: 0x27B87, size: 0x8, addend: 0x0, symName: __ZNKSt3__16vectorIN2sf6VertexENS_9allocatorIS2_EEE17__annotate_deleteB7v160006Ev, symObjAddr: 0x855C, symBinAddr: 0x100009F20, symSize: 0xD4 }
  - { offsetInCU: 0x27BAD, offset: 0x27BAD, size: 0x8, addend: 0x0, symName: __ZNSt3__16vectorIN2sf6VertexENS_9allocatorIS2_EEE7__clearB7v160006Ev, symObjAddr: 0x8640, symBinAddr: 0x10000A004, symSize: 0x28 }
  - { offsetInCU: 0x27BD3, offset: 0x27BD3, size: 0x8, addend: 0x0, symName: __ZNSt3__116allocator_traitsINS_9allocatorIN2sf6VertexEEEE10deallocateB7v160006ERS4_PS3_m, symObjAddr: 0x8668, symBinAddr: 0x10000A02C, symSize: 0x34 }
  - { offsetInCU: 0x27C15, offset: 0x27C15, size: 0x8, addend: 0x0, symName: __ZNSt3__16vectorIN2sf6VertexENS_9allocatorIS2_EEE7__allocB7v160006Ev, symObjAddr: 0x869C, symBinAddr: 0x10000A060, symSize: 0x28 }
  - { offsetInCU: 0x27C3B, offset: 0x27C3B, size: 0x8, addend: 0x0, symName: __ZNKSt3__16vectorIN2sf6VertexENS_9allocatorIS2_EEE8capacityB7v160006Ev, symObjAddr: 0x86C4, symBinAddr: 0x10000A088, symSize: 0x40 }
  - { offsetInCU: 0x27C61, offset: 0x27C61, size: 0x8, addend: 0x0, symName: __ZNKSt3__16vectorIN2sf6VertexENS_9allocatorIS2_EEE31__annotate_contiguous_containerB7v160006EPKvS7_S7_S7_, symObjAddr: 0x8704, symBinAddr: 0x10000A0C8, symSize: 0x20 }
  - { offsetInCU: 0x27CB7, offset: 0x27CB7, size: 0x8, addend: 0x0, symName: __ZNKSt3__16vectorIN2sf6VertexENS_9allocatorIS2_EEE4dataB7v160006Ev, symObjAddr: 0x8724, symBinAddr: 0x10000A0E8, symSize: 0x28 }
  - { offsetInCU: 0x27CDD, offset: 0x27CDD, size: 0x8, addend: 0x0, symName: __ZNKSt3__16vectorIN2sf6VertexENS_9allocatorIS2_EEE4sizeB7v160006Ev, symObjAddr: 0x874C, symBinAddr: 0x10000A110, symSize: 0x28 }
  - { offsetInCU: 0x27D03, offset: 0x27D03, size: 0x8, addend: 0x0, symName: __ZNSt3__16vectorIN2sf6VertexENS_9allocatorIS2_EEE22__base_destruct_at_endB7v160006EPS2_, symObjAddr: 0x8788, symBinAddr: 0x10000A14C, symSize: 0xA0 }
  - { offsetInCU: 0x27D47, offset: 0x27D47, size: 0x8, addend: 0x0, symName: __ZNSt3__116allocator_traitsINS_9allocatorIN2sf6VertexEEEE7destroyB7v160006IS3_vEEvRS4_PT_, symObjAddr: 0x8828, symBinAddr: 0x10000A1EC, symSize: 0x2C }
  - { offsetInCU: 0x27D84, offset: 0x27D84, size: 0x8, addend: 0x0, symName: __ZNSt3__19allocatorIN2sf6VertexEE7destroyB7v160006EPS2_, symObjAddr: 0x8854, symBinAddr: 0x10000A218, symSize: 0x14 }
  - { offsetInCU: 0x27DB8, offset: 0x27DB8, size: 0x8, addend: 0x0, symName: __ZNSt3__19allocatorIN2sf6VertexEE10deallocateB7v160006EPS2_m, symObjAddr: 0x8868, symBinAddr: 0x10000A22C, symSize: 0x74 }
  - { offsetInCU: 0x27DFA, offset: 0x27DFA, size: 0x8, addend: 0x0, symName: __ZNSt3__117__compressed_pairIPN2sf6VertexENS_9allocatorIS2_EEE6secondB7v160006Ev, symObjAddr: 0x88DC, symBinAddr: 0x10000A2A0, symSize: 0x24 }
  - { offsetInCU: 0x27E20, offset: 0x27E20, size: 0x8, addend: 0x0, symName: __ZNSt3__122__compressed_pair_elemINS_9allocatorIN2sf6VertexEEELi1ELb1EE5__getB7v160006Ev, symObjAddr: 0x8900, symBinAddr: 0x10000A2C4, symSize: 0x14 }
  - { offsetInCU: 0x27E46, offset: 0x27E46, size: 0x8, addend: 0x0, symName: __ZNKSt3__16vectorIN2sf6VertexENS_9allocatorIS2_EEE9__end_capB7v160006Ev, symObjAddr: 0x8914, symBinAddr: 0x10000A2D8, symSize: 0x28 }
  - { offsetInCU: 0x27E6C, offset: 0x27E6C, size: 0x8, addend: 0x0, symName: __ZNKSt3__117__compressed_pairIPN2sf6VertexENS_9allocatorIS2_EEE5firstB7v160006Ev, symObjAddr: 0x893C, symBinAddr: 0x10000A300, symSize: 0x24 }
  - { offsetInCU: 0x27E92, offset: 0x27E92, size: 0x8, addend: 0x0, symName: __ZNKSt3__122__compressed_pair_elemIPN2sf6VertexELi0ELb0EE5__getB7v160006Ev, symObjAddr: 0x8960, symBinAddr: 0x10000A324, symSize: 0x14 }
  - { offsetInCU: 0x27EB8, offset: 0x27EB8, size: 0x8, addend: 0x0, symName: __ZN2sf14RectangleShapeD2Ev, symObjAddr: 0x8974, symBinAddr: 0x10000A338, symSize: 0x2C }
  - { offsetInCU: 0x27EE4, offset: 0x27EE4, size: 0x8, addend: 0x0, symName: __ZThn8_N2sf14RectangleShapeD1Ev, symObjAddr: 0x89A0, symBinAddr: 0x10000A364, symSize: 0x1C }
  - { offsetInCU: 0x27EFA, offset: 0x27EFA, size: 0x8, addend: 0x0, symName: __ZN2sf6SpriteD2Ev, symObjAddr: 0x89BC, symBinAddr: 0x10000A380, symSize: 0x60 }
  - { offsetInCU: 0x27F26, offset: 0x27F26, size: 0x8, addend: 0x0, symName: __ZThn8_N2sf6SpriteD1Ev, symObjAddr: 0x8A1C, symBinAddr: 0x10000A3E0, symSize: 0x1C }
  - { offsetInCU: 0x27F3C, offset: 0x27F3C, size: 0x8, addend: 0x0, symName: __ZN2sf15ContextSettingsC2Ejjjjjjb, symObjAddr: 0x8A38, symBinAddr: 0x10000A3FC, symSize: 0x74 }
  - { offsetInCU: 0x27FC8, offset: 0x27FC8, size: 0x8, addend: 0x0, symName: __ZN2sf14RectangleShapeC2ERKS0_, symObjAddr: 0x8AAC, symBinAddr: 0x10000A470, symSize: 0x68 }
  - { offsetInCU: 0x28003, offset: 0x28003, size: 0x8, addend: 0x0, symName: __ZN2sf5ShapeC2ERKS0_, symObjAddr: 0x8B14, symBinAddr: 0x10000A4D8, symSize: 0x128 }
  - { offsetInCU: 0x28038, offset: 0x28038, size: 0x8, addend: 0x0, symName: __ZN2sf8DrawableC2ERKS0_, symObjAddr: 0x8C3C, symBinAddr: 0x10000A600, symSize: 0x28 }
  - { offsetInCU: 0x28073, offset: 0x28073, size: 0x8, addend: 0x0, symName: __ZN2sf13TransformableC2ERKS0_, symObjAddr: 0x8C64, symBinAddr: 0x10000A628, symSize: 0x50 }
  - { offsetInCU: 0x280AE, offset: 0x280AE, size: 0x8, addend: 0x0, symName: __ZN2sf11VertexArrayC1ERKS0_, symObjAddr: 0x8CB4, symBinAddr: 0x10000A678, symSize: 0x34 }
  - { offsetInCU: 0x280E3, offset: 0x280E3, size: 0x8, addend: 0x0, symName: __ZN2sf8DrawableD1Ev, symObjAddr: 0x8CE8, symBinAddr: 0x10000A6AC, symSize: 0x14 }
  - { offsetInCU: 0x2810D, offset: 0x2810D, size: 0x8, addend: 0x0, symName: __ZN2sf8DrawableD0Ev, symObjAddr: 0x8CFC, symBinAddr: 0x10000A6C0, symSize: 0xC }
  - { offsetInCU: 0x28137, offset: 0x28137, size: 0x8, addend: 0x0, symName: __ZN2sf11VertexArrayC2ERKS0_, symObjAddr: 0x8D08, symBinAddr: 0x10000A6CC, symSize: 0x94 }
  - { offsetInCU: 0x2816C, offset: 0x2816C, size: 0x8, addend: 0x0, symName: __ZNSt3__16vectorIN2sf6VertexENS_9allocatorIS2_EEEC1ERKS5_, symObjAddr: 0x8D9C, symBinAddr: 0x10000A760, symSize: 0x34 }
  - { offsetInCU: 0x281A7, offset: 0x281A7, size: 0x8, addend: 0x0, symName: __ZNSt3__16vectorIN2sf6VertexENS_9allocatorIS2_EEEC2ERKS5_, symObjAddr: 0x8DD0, symBinAddr: 0x10000A794, symSize: 0x11C }
  - { offsetInCU: 0x28211, offset: 0x28211, size: 0x8, addend: 0x0, symName: __ZNSt3__116allocator_traitsINS_9allocatorIN2sf6VertexEEEE37select_on_container_copy_constructionB7v160006IS4_vvEES4_RKS4_, symObjAddr: 0x8EEC, symBinAddr: 0x10000A8B0, symSize: 0x10 }
  - { offsetInCU: 0x28240, offset: 0x28240, size: 0x8, addend: 0x0, symName: __ZNKSt3__16vectorIN2sf6VertexENS_9allocatorIS2_EEE7__allocB7v160006Ev, symObjAddr: 0x8EFC, symBinAddr: 0x10000A8C0, symSize: 0x28 }
  - { offsetInCU: 0x28272, offset: 0x28272, size: 0x8, addend: 0x0, symName: __ZNSt3__117__compressed_pairIPN2sf6VertexENS_9allocatorIS2_EEEC1B7v160006IDnS5_EEOT_OT0_, symObjAddr: 0x8F24, symBinAddr: 0x10000A8E8, symSize: 0x3C }
  - { offsetInCU: 0x282CA, offset: 0x282CA, size: 0x8, addend: 0x0, symName: __ZNSt3__16vectorIN2sf6VertexENS_9allocatorIS2_EEE11__vallocateB7v160006Em, symObjAddr: 0x8FB0, symBinAddr: 0x10000A974, symSize: 0xB4 }
  - { offsetInCU: 0x2830E, offset: 0x2830E, size: 0x8, addend: 0x0, symName: __ZNSt3__16vectorIN2sf6VertexENS_9allocatorIS2_EEE18__construct_at_endIPS2_Li0EEEvT_S8_m, symObjAddr: 0x9064, symBinAddr: 0x10000AA28, symSize: 0x94 }
  - { offsetInCU: 0x28381, offset: 0x28381, size: 0x8, addend: 0x0, symName: __ZNSt3__128__exception_guard_exceptionsINS_6vectorIN2sf6VertexENS_9allocatorIS3_EEE16__destroy_vectorEE10__completeB7v160006Ev, symObjAddr: 0x90F8, symBinAddr: 0x10000AABC, symSize: 0x1C }
  - { offsetInCU: 0x283A7, offset: 0x283A7, size: 0x8, addend: 0x0, symName: __ZNSt3__128__exception_guard_exceptionsINS_6vectorIN2sf6VertexENS_9allocatorIS3_EEE16__destroy_vectorEED1B7v160006Ev, symObjAddr: 0x9114, symBinAddr: 0x10000AAD8, symSize: 0x2C }
  - { offsetInCU: 0x283D1, offset: 0x283D1, size: 0x8, addend: 0x0, symName: __ZNKSt3__117__compressed_pairIPN2sf6VertexENS_9allocatorIS2_EEE6secondB7v160006Ev, symObjAddr: 0x9140, symBinAddr: 0x10000AB04, symSize: 0x24 }
  - { offsetInCU: 0x283F7, offset: 0x283F7, size: 0x8, addend: 0x0, symName: __ZNKSt3__122__compressed_pair_elemINS_9allocatorIN2sf6VertexEEELi1ELb1EE5__getB7v160006Ev, symObjAddr: 0x9164, symBinAddr: 0x10000AB28, symSize: 0x14 }
  - { offsetInCU: 0x2841D, offset: 0x2841D, size: 0x8, addend: 0x0, symName: __ZNSt3__117__compressed_pairIPN2sf6VertexENS_9allocatorIS2_EEEC2B7v160006IDnS5_EEOT_OT0_, symObjAddr: 0x9178, symBinAddr: 0x10000AB3C, symSize: 0x44 }
  - { offsetInCU: 0x28475, offset: 0x28475, size: 0x8, addend: 0x0, symName: __ZNSt3__122__compressed_pair_elemIPN2sf6VertexELi0ELb0EEC2B7v160006IDnvEEOT_, symObjAddr: 0x91BC, symBinAddr: 0x10000AB80, symSize: 0x1C }
  - { offsetInCU: 0x284B7, offset: 0x284B7, size: 0x8, addend: 0x0, symName: __ZNSt3__122__compressed_pair_elemINS_9allocatorIN2sf6VertexEEELi1ELb1EEC2B7v160006IS4_vEEOT_, symObjAddr: 0x91D8, symBinAddr: 0x10000AB9C, symSize: 0x18 }
  - { offsetInCU: 0x284F9, offset: 0x284F9, size: 0x8, addend: 0x0, symName: __ZNSt3__128__exception_guard_exceptionsINS_6vectorIN2sf6VertexENS_9allocatorIS3_EEE16__destroy_vectorEEC1B7v160006ES7_, symObjAddr: 0x91F0, symBinAddr: 0x10000ABB4, symSize: 0x34 }
  - { offsetInCU: 0x28531, offset: 0x28531, size: 0x8, addend: 0x0, symName: __ZNSt3__128__exception_guard_exceptionsINS_6vectorIN2sf6VertexENS_9allocatorIS3_EEE16__destroy_vectorEEC2B7v160006ES7_, symObjAddr: 0x9224, symBinAddr: 0x10000ABE8, symSize: 0x24 }
  - { offsetInCU: 0x28569, offset: 0x28569, size: 0x8, addend: 0x0, symName: __ZNKSt3__16vectorIN2sf6VertexENS_9allocatorIS2_EEE8max_sizeEv, symObjAddr: 0x9248, symBinAddr: 0x10000AC0C, symSize: 0x74 }
  - { offsetInCU: 0x28591, offset: 0x28591, size: 0x8, addend: 0x0, symName: __ZNKSt3__16vectorIN2sf6VertexENS_9allocatorIS2_EEE20__throw_length_errorB7v160006Ev, symObjAddr: 0x92BC, symBinAddr: 0x10000AC80, symSize: 0x1C }
  - { offsetInCU: 0x285B7, offset: 0x285B7, size: 0x8, addend: 0x0, symName: __ZNSt3__16vectorIN2sf6VertexENS_9allocatorIS2_EEE9__end_capB7v160006Ev, symObjAddr: 0x9318, symBinAddr: 0x10000ACDC, symSize: 0x28 }
  - { offsetInCU: 0x285DD, offset: 0x285DD, size: 0x8, addend: 0x0, symName: __ZNKSt3__16vectorIN2sf6VertexENS_9allocatorIS2_EEE14__annotate_newB7v160006Em, symObjAddr: 0x9340, symBinAddr: 0x10000AD04, symSize: 0xC8 }
  - { offsetInCU: 0x28612, offset: 0x28612, size: 0x8, addend: 0x0, symName: __ZNSt3__116allocator_traitsINS_9allocatorIN2sf6VertexEEEE8max_sizeB7v160006IS4_vEEmRKS4_, symObjAddr: 0x9434, symBinAddr: 0x10000ADF8, symSize: 0x24 }
  - { offsetInCU: 0x28640, offset: 0x28640, size: 0x8, addend: 0x0, symName: __ZNSt3__114numeric_limitsIlE3maxB7v160006Ev, symObjAddr: 0x9458, symBinAddr: 0x10000AE1C, symSize: 0x14 }
  - { offsetInCU: 0x2865F, offset: 0x2865F, size: 0x8, addend: 0x0, symName: __ZNKSt3__16__lessImmEclB7v160006ERKmS3_, symObjAddr: 0x94C0, symBinAddr: 0x10000AE84, symSize: 0x34 }
  - { offsetInCU: 0x286A1, offset: 0x286A1, size: 0x8, addend: 0x0, symName: __ZNKSt3__19allocatorIN2sf6VertexEE8max_sizeB7v160006Ev, symObjAddr: 0x94F4, symBinAddr: 0x10000AEB8, symSize: 0x18 }
  - { offsetInCU: 0x286C7, offset: 0x286C7, size: 0x8, addend: 0x0, symName: __ZNSt3__123__libcpp_numeric_limitsIlLb1EE3maxB7v160006Ev, symObjAddr: 0x950C, symBinAddr: 0x10000AED0, symSize: 0x8 }
  - { offsetInCU: 0x286DB, offset: 0x286DB, size: 0x8, addend: 0x0, symName: __ZNSt12length_errorC1B7v160006EPKc, symObjAddr: 0x9578, symBinAddr: 0x10000AF3C, symSize: 0x34 }
  - { offsetInCU: 0x28713, offset: 0x28713, size: 0x8, addend: 0x0, symName: __ZNSt12length_errorC2B7v160006EPKc, symObjAddr: 0x95AC, symBinAddr: 0x10000AF70, symSize: 0x4C }
  - { offsetInCU: 0x2874B, offset: 0x2874B, size: 0x8, addend: 0x0, symName: __ZNSt3__19allocatorIN2sf6VertexEE8allocateB7v160006Em, symObjAddr: 0x95F8, symBinAddr: 0x10000AFBC, symSize: 0x8C }
  - { offsetInCU: 0x2877F, offset: 0x2877F, size: 0x8, addend: 0x0, symName: __ZNSt3__117__compressed_pairIPN2sf6VertexENS_9allocatorIS2_EEE5firstB7v160006Ev, symObjAddr: 0x9704, symBinAddr: 0x10000B0C8, symSize: 0x24 }
  - { offsetInCU: 0x287A5, offset: 0x287A5, size: 0x8, addend: 0x0, symName: __ZNSt3__122__compressed_pair_elemIPN2sf6VertexELi0ELb0EE5__getB7v160006Ev, symObjAddr: 0x9728, symBinAddr: 0x10000B0EC, symSize: 0x14 }
  - { offsetInCU: 0x287E7, offset: 0x287E7, size: 0x8, addend: 0x0, symName: __ZNSt3__16vectorIN2sf6VertexENS_9allocatorIS2_EEE21_ConstructTransactionC1B7v160006ERS5_m, symObjAddr: 0x973C, symBinAddr: 0x10000B100, symSize: 0x3C }
  - { offsetInCU: 0x2882F, offset: 0x2882F, size: 0x8, addend: 0x0, symName: __ZNSt3__16vectorIN2sf6VertexENS_9allocatorIS2_EEE21_ConstructTransactionD1B7v160006Ev, symObjAddr: 0x9874, symBinAddr: 0x10000B238, symSize: 0x2C }
  - { offsetInCU: 0x28859, offset: 0x28859, size: 0x8, addend: 0x0, symName: __ZNSt3__16vectorIN2sf6VertexENS_9allocatorIS2_EEE21_ConstructTransactionC2B7v160006ERS5_m, symObjAddr: 0x98A0, symBinAddr: 0x10000B264, symSize: 0x4C }
  - { offsetInCU: 0x288A1, offset: 0x288A1, size: 0x8, addend: 0x0, symName: __ZNSt3__129_AllocatorDestroyRangeReverseINS_9allocatorIN2sf6VertexEEEPS3_EC1B7v160006ERS4_RS5_S8_, symObjAddr: 0x9938, symBinAddr: 0x10000B2FC, symSize: 0x44 }
  - { offsetInCU: 0x288F8, offset: 0x288F8, size: 0x8, addend: 0x0, symName: __ZNSt3__116allocator_traitsINS_9allocatorIN2sf6VertexEEEE9constructB7v160006IS3_JRS3_EvEEvRS4_PT_DpOT0_, symObjAddr: 0x997C, symBinAddr: 0x10000B340, symSize: 0x34 }
  - { offsetInCU: 0x2894F, offset: 0x2894F, size: 0x8, addend: 0x0, symName: __ZNSt3__128__exception_guard_exceptionsINS_29_AllocatorDestroyRangeReverseINS_9allocatorIN2sf6VertexEEEPS4_EEE10__completeB7v160006Ev, symObjAddr: 0x99B0, symBinAddr: 0x10000B374, symSize: 0x1C }
  - { offsetInCU: 0x28975, offset: 0x28975, size: 0x8, addend: 0x0, symName: __ZNSt3__128__exception_guard_exceptionsINS_29_AllocatorDestroyRangeReverseINS_9allocatorIN2sf6VertexEEEPS4_EEED1B7v160006Ev, symObjAddr: 0x99CC, symBinAddr: 0x10000B390, symSize: 0x2C }
  - { offsetInCU: 0x2899F, offset: 0x2899F, size: 0x8, addend: 0x0, symName: __ZNSt3__128__exception_guard_exceptionsINS_29_AllocatorDestroyRangeReverseINS_9allocatorIN2sf6VertexEEEPS4_EEEC1B7v160006ES7_, symObjAddr: 0x99F8, symBinAddr: 0x10000B3BC, symSize: 0x34 }
  - { offsetInCU: 0x289D8, offset: 0x289D8, size: 0x8, addend: 0x0, symName: __ZNSt3__128__exception_guard_exceptionsINS_29_AllocatorDestroyRangeReverseINS_9allocatorIN2sf6VertexEEEPS4_EEEC2B7v160006ES7_, symObjAddr: 0x9A2C, symBinAddr: 0x10000B3F0, symSize: 0x30 }
  - { offsetInCU: 0x28A11, offset: 0x28A11, size: 0x8, addend: 0x0, symName: __ZNSt3__129_AllocatorDestroyRangeReverseINS_9allocatorIN2sf6VertexEEEPS3_EC2B7v160006ERS4_RS5_S8_, symObjAddr: 0x9A5C, symBinAddr: 0x10000B420, symSize: 0x38 }
  - { offsetInCU: 0x28A68, offset: 0x28A68, size: 0x8, addend: 0x0, symName: __ZNSt3__19allocatorIN2sf6VertexEE9constructB7v160006IS2_JRS2_EEEvPT_DpOT0_, symObjAddr: 0x9A94, symBinAddr: 0x10000B458, symSize: 0x30 }
  - { offsetInCU: 0x28ABE, offset: 0x28ABE, size: 0x8, addend: 0x0, symName: __ZNSt3__128__exception_guard_exceptionsINS_29_AllocatorDestroyRangeReverseINS_9allocatorIN2sf6VertexEEEPS4_EEED2B7v160006Ev, symObjAddr: 0x9AC4, symBinAddr: 0x10000B488, symSize: 0x48 }
  - { offsetInCU: 0x28AE8, offset: 0x28AE8, size: 0x8, addend: 0x0, symName: __ZNKSt3__129_AllocatorDestroyRangeReverseINS_9allocatorIN2sf6VertexEEEPS3_EclB7v160006Ev, symObjAddr: 0x9B0C, symBinAddr: 0x10000B4D0, symSize: 0x68 }
  - { offsetInCU: 0x28B0E, offset: 0x28B0E, size: 0x8, addend: 0x0, symName: __ZNSt3__116reverse_iteratorIPN2sf6VertexEEC1B7v160006ES3_, symObjAddr: 0x9BE4, symBinAddr: 0x10000B5A8, symSize: 0x34 }
  - { offsetInCU: 0x28B46, offset: 0x28B46, size: 0x8, addend: 0x0, symName: __ZNSt3__116reverse_iteratorIPN2sf6VertexEEppB7v160006Ev, symObjAddr: 0x9C84, symBinAddr: 0x10000B648, symSize: 0x20 }
  - { offsetInCU: 0x28B6C, offset: 0x28B6C, size: 0x8, addend: 0x0, symName: __ZNKSt3__116reverse_iteratorIPN2sf6VertexEE4baseB7v160006Ev, symObjAddr: 0x9CA4, symBinAddr: 0x10000B668, symSize: 0x18 }
  - { offsetInCU: 0x28B98, offset: 0x28B98, size: 0x8, addend: 0x0, symName: __ZNSt3__119__to_address_helperINS_16reverse_iteratorIPN2sf6VertexEEEvE6__callB7v160006ERKS5_, symObjAddr: 0x9CBC, symBinAddr: 0x10000B680, symSize: 0x4C }
  - { offsetInCU: 0x28BBB, offset: 0x28BBB, size: 0x8, addend: 0x0, symName: __ZNKSt3__116reverse_iteratorIPN2sf6VertexEEptB7v160006Ev, symObjAddr: 0x9D08, symBinAddr: 0x10000B6CC, symSize: 0x24 }
  - { offsetInCU: 0x28BE1, offset: 0x28BE1, size: 0x8, addend: 0x0, symName: __ZNKSt3__116reverse_iteratorIPN2sf6VertexEEdeB7v160006Ev, symObjAddr: 0x9D2C, symBinAddr: 0x10000B6F0, symSize: 0x28 }
  - { offsetInCU: 0x28C15, offset: 0x28C15, size: 0x8, addend: 0x0, symName: __ZNSt3__116reverse_iteratorIPN2sf6VertexEEC2B7v160006ES3_, symObjAddr: 0x9D54, symBinAddr: 0x10000B718, symSize: 0x28 }
  - { offsetInCU: 0x28C4D, offset: 0x28C4D, size: 0x8, addend: 0x0, symName: __ZNSt3__16vectorIN2sf6VertexENS_9allocatorIS2_EEE21_ConstructTransactionD2B7v160006Ev, symObjAddr: 0x9D7C, symBinAddr: 0x10000B740, symSize: 0x20 }
  - { offsetInCU: 0x28C77, offset: 0x28C77, size: 0x8, addend: 0x0, symName: __ZNSt3__128__exception_guard_exceptionsINS_6vectorIN2sf6VertexENS_9allocatorIS3_EEE16__destroy_vectorEED2B7v160006Ev, symObjAddr: 0x9D9C, symBinAddr: 0x10000B760, symSize: 0x48 }
  - { offsetInCU: 0x28CA1, offset: 0x28CA1, size: 0x8, addend: 0x0, symName: __ZN2sf4TextC2ERKS0_, symObjAddr: 0x9DE4, symBinAddr: 0x10000B7A8, symSize: 0x178 }
  - { offsetInCU: 0x28CD6, offset: 0x28CD6, size: 0x8, addend: 0x0, symName: __ZN2sf4RectIiEC2Ev, symObjAddr: 0x9F5C, symBinAddr: 0x10000B920, symSize: 0x24 }
  - { offsetInCU: 0x28D02, offset: 0x28D02, size: 0x8, addend: 0x0, symName: __ZNSt3__110shared_ptrIN2sf7TextureEED2B7v160006Ev, symObjAddr: 0x9F80, symBinAddr: 0x10000B944, symSize: 0x54 }
  - { offsetInCU: 0x28D2C, offset: 0x28D2C, size: 0x8, addend: 0x0, symName: __ZNSt3__119__shared_weak_count16__release_sharedB7v160006Ev, symObjAddr: 0x9FD4, symBinAddr: 0x10000B998, symSize: 0x3C }
  - { offsetInCU: 0x28D52, offset: 0x28D52, size: 0x8, addend: 0x0, symName: __ZNSt3__114__shared_count16__release_sharedB7v160006Ev, symObjAddr: 0xA010, symBinAddr: 0x10000B9D4, symSize: 0x7C }
  - { offsetInCU: 0x28D78, offset: 0x28D78, size: 0x8, addend: 0x0, symName: __ZNSt3__113unordered_mapINS_12basic_stringIcNS_11char_traitsIcEENS_9allocatorIcEEEENS_10shared_ptrIN2sf7TextureEEENS_4hashIS6_EENS_8equal_toIS6_EENS4_INS_4pairIKS6_SA_EEEEEC2B7v160006Ev, symObjAddr: 0xA0BC, symBinAddr: 0x10000BA80, symSize: 0x64 }
  - { offsetInCU: 0x28DA2, offset: 0x28DA2, size: 0x8, addend: 0x0, symName: __ZNSt3__112__hash_tableINS_17__hash_value_typeINS_12basic_stringIcNS_11char_traitsIcEENS_9allocatorIcEEEENS_10shared_ptrIN2sf7TextureEEEEENS_22__unordered_map_hasherIS7_SC_NS_4hashIS7_EENS_8equal_toIS7_EELb1EEENS_21__unordered_map_equalIS7_SC_SH_SF_Lb1EEENS5_ISC_EEEC1Ev, symObjAddr: 0xA120, symBinAddr: 0x10000BAE4, symSize: 0x2C }
  - { offsetInCU: 0x28DCE, offset: 0x28DCE, size: 0x8, addend: 0x0, symName: __ZNSt3__112__hash_tableINS_17__hash_value_typeINS_12basic_stringIcNS_11char_traitsIcEENS_9allocatorIcEEEENS_10shared_ptrIN2sf7TextureEEEEENS_22__unordered_map_hasherIS7_SC_NS_4hashIS7_EENS_8equal_toIS7_EELb1EEENS_21__unordered_map_equalIS7_SC_SH_SF_Lb1EEENS5_ISC_EEED1Ev, symObjAddr: 0xA15C, symBinAddr: 0x10000BB20, symSize: 0x2C }
  - { offsetInCU: 0x28DFA, offset: 0x28DFA, size: 0x8, addend: 0x0, symName: __ZNSt3__112__hash_tableINS_17__hash_value_typeINS_12basic_stringIcNS_11char_traitsIcEENS_9allocatorIcEEEENS_10shared_ptrIN2sf7TextureEEEEENS_22__unordered_map_hasherIS7_SC_NS_4hashIS7_EENS_8equal_toIS7_EELb1EEENS_21__unordered_map_equalIS7_SC_SH_SF_Lb1EEENS5_ISC_EEEC2Ev, symObjAddr: 0xA188, symBinAddr: 0x10000BB4C, symSize: 0xA4 }
  - { offsetInCU: 0x28E26, offset: 0x28E26, size: 0x8, addend: 0x0, symName: __ZNSt3__110unique_ptrIA_PNS_16__hash_node_baseIPNS_11__hash_nodeINS_17__hash_value_typeINS_12basic_stringIcNS_11char_traitsIcEENS_9allocatorIcEEEENS_10shared_ptrIN2sf7TextureEEEEEPvEEEENS_25__bucket_list_deallocatorINS7_ISJ_EEEEEC1B7v160006ILb1EvEEv, symObjAddr: 0xA22C, symBinAddr: 0x10000BBF0, symSize: 0x2C }
  - { offsetInCU: 0x28E5B, offset: 0x28E5B, size: 0x8, addend: 0x0, symName: __ZNSt3__117__compressed_pairINS_16__hash_node_baseIPNS_11__hash_nodeINS_17__hash_value_typeINS_12basic_stringIcNS_11char_traitsIcEENS_9allocatorIcEEEENS_10shared_ptrIN2sf7TextureEEEEEPvEEEENS7_ISG_EEEC1B7v160006ILb1EvEEv, symObjAddr: 0xA258, symBinAddr: 0x10000BC1C, symSize: 0x2C }
  - { offsetInCU: 0x28E9C, offset: 0x28E9C, size: 0x8, addend: 0x0, symName: __ZNSt3__117__compressed_pairImNS_22__unordered_map_hasherINS_12basic_stringIcNS_11char_traitsIcEENS_9allocatorIcEEEENS_17__hash_value_typeIS7_NS_10shared_ptrIN2sf7TextureEEEEENS_4hashIS7_EENS_8equal_toIS7_EELb1EEEEC1B7v160006IiNS_18__default_init_tagEEEOT_OT0_, symObjAddr: 0xA284, symBinAddr: 0x10000BC48, symSize: 0x3C }
  - { offsetInCU: 0x28EFA, offset: 0x28EFA, size: 0x8, addend: 0x0, symName: __ZNSt3__117__compressed_pairIfNS_21__unordered_map_equalINS_12basic_stringIcNS_11char_traitsIcEENS_9allocatorIcEEEENS_17__hash_value_typeIS7_NS_10shared_ptrIN2sf7TextureEEEEENS_8equal_toIS7_EENS_4hashIS7_EELb1EEEEC1B7v160006IfNS_18__default_init_tagEEEOT_OT0_, symObjAddr: 0xA2C0, symBinAddr: 0x10000BC84, symSize: 0x3C }
  - { offsetInCU: 0x28F52, offset: 0x28F52, size: 0x8, addend: 0x0, symName: __ZNSt3__110unique_ptrIA_PNS_16__hash_node_baseIPNS_11__hash_nodeINS_17__hash_value_typeINS_12basic_stringIcNS_11char_traitsIcEENS_9allocatorIcEEEENS_10shared_ptrIN2sf7TextureEEEEEPvEEEENS_25__bucket_list_deallocatorINS7_ISJ_EEEEED1B7v160006Ev, symObjAddr: 0xA2FC, symBinAddr: 0x10000BCC0, symSize: 0x2C }
  - { offsetInCU: 0x28F7C, offset: 0x28F7C, size: 0x8, addend: 0x0, symName: __ZNSt3__110unique_ptrIA_PNS_16__hash_node_baseIPNS_11__hash_nodeINS_17__hash_value_typeINS_12basic_stringIcNS_11char_traitsIcEENS_9allocatorIcEEEENS_10shared_ptrIN2sf7TextureEEEEEPvEEEENS_25__bucket_list_deallocatorINS7_ISJ_EEEEEC2B7v160006ILb1EvEEv, symObjAddr: 0xA328, symBinAddr: 0x10000BCEC, symSize: 0x50 }
  - { offsetInCU: 0x28FB7, offset: 0x28FB7, size: 0x8, addend: 0x0, symName: __ZNSt3__117__compressed_pairIPPNS_16__hash_node_baseIPNS_11__hash_nodeINS_17__hash_value_typeINS_12basic_stringIcNS_11char_traitsIcEENS_9allocatorIcEEEENS_10shared_ptrIN2sf7TextureEEEEEPvEEEENS_25__bucket_list_deallocatorINS7_ISJ_EEEEEC1B7v160006INS_16__value_init_tagESQ_EEOT_OT0_, symObjAddr: 0xA378, symBinAddr: 0x10000BD3C, symSize: 0x3C }
  - { offsetInCU: 0x2900F, offset: 0x2900F, size: 0x8, addend: 0x0, symName: __ZNSt3__117__compressed_pairIPPNS_16__hash_node_baseIPNS_11__hash_nodeINS_17__hash_value_typeINS_12basic_stringIcNS_11char_traitsIcEENS_9allocatorIcEEEENS_10shared_ptrIN2sf7TextureEEEEEPvEEEENS_25__bucket_list_deallocatorINS7_ISJ_EEEEEC2B7v160006INS_16__value_init_tagESQ_EEOT_OT0_, symObjAddr: 0xA3B4, symBinAddr: 0x10000BD78, symSize: 0x40 }
  - { offsetInCU: 0x29067, offset: 0x29067, size: 0x8, addend: 0x0, symName: __ZNSt3__122__compressed_pair_elemIPPNS_16__hash_node_baseIPNS_11__hash_nodeINS_17__hash_value_typeINS_12basic_stringIcNS_11char_traitsIcEENS_9allocatorIcEEEENS_10shared_ptrIN2sf7TextureEEEEEPvEEEELi0ELb0EEC2B7v160006ENS_16__value_init_tagE, symObjAddr: 0xA3F4, symBinAddr: 0x10000BDB8, symSize: 0x18 }
  - { offsetInCU: 0x2909C, offset: 0x2909C, size: 0x8, addend: 0x0, symName: __ZNSt3__122__compressed_pair_elemINS_25__bucket_list_deallocatorINS_9allocatorIPNS_16__hash_node_baseIPNS_11__hash_nodeINS_17__hash_value_typeINS_12basic_stringIcNS_11char_traitsIcEENS2_IcEEEENS_10shared_ptrIN2sf7TextureEEEEEPvEEEEEEEELi1ELb0EEC2B7v160006ENS_16__value_init_tagE, symObjAddr: 0xA40C, symBinAddr: 0x10000BDD0, symSize: 0x2C }
  - { offsetInCU: 0x290D1, offset: 0x290D1, size: 0x8, addend: 0x0, symName: __ZNSt3__125__bucket_list_deallocatorINS_9allocatorIPNS_16__hash_node_baseIPNS_11__hash_nodeINS_17__hash_value_typeINS_12basic_stringIcNS_11char_traitsIcEENS1_IcEEEENS_10shared_ptrIN2sf7TextureEEEEEPvEEEEEEEC1B7v160006Ev, symObjAddr: 0xA438, symBinAddr: 0x10000BDFC, symSize: 0x2C }
  - { offsetInCU: 0x290FB, offset: 0x290FB, size: 0x8, addend: 0x0, symName: __ZNSt3__125__bucket_list_deallocatorINS_9allocatorIPNS_16__hash_node_baseIPNS_11__hash_nodeINS_17__hash_value_typeINS_12basic_stringIcNS_11char_traitsIcEENS1_IcEEEENS_10shared_ptrIN2sf7TextureEEEEEPvEEEEEEEC2B7v160006Ev, symObjAddr: 0xA464, symBinAddr: 0x10000BE28, symSize: 0x38 }
  - { offsetInCU: 0x29125, offset: 0x29125, size: 0x8, addend: 0x0, symName: __ZNSt3__117__compressed_pairImNS_9allocatorIPNS_16__hash_node_baseIPNS_11__hash_nodeINS_17__hash_value_typeINS_12basic_stringIcNS_11char_traitsIcEENS1_IcEEEENS_10shared_ptrIN2sf7TextureEEEEEPvEEEEEEEC1B7v160006IiNS_18__default_init_tagEEEOT_OT0_, symObjAddr: 0xA49C, symBinAddr: 0x10000BE60, symSize: 0x3C }
  - { offsetInCU: 0x2917D, offset: 0x2917D, size: 0x8, addend: 0x0, symName: __ZNSt3__117__compressed_pairImNS_9allocatorIPNS_16__hash_node_baseIPNS_11__hash_nodeINS_17__hash_value_typeINS_12basic_stringIcNS_11char_traitsIcEENS1_IcEEEENS_10shared_ptrIN2sf7TextureEEEEEPvEEEEEEEC2B7v160006IiNS_18__default_init_tagEEEOT_OT0_, symObjAddr: 0xA4D8, symBinAddr: 0x10000BE9C, symSize: 0x40 }
  - { offsetInCU: 0x291D5, offset: 0x291D5, size: 0x8, addend: 0x0, symName: __ZNSt3__122__compressed_pair_elemImLi0ELb0EEC2B7v160006IivEEOT_, symObjAddr: 0xA518, symBinAddr: 0x10000BEDC, symSize: 0x24 }
  - { offsetInCU: 0x29217, offset: 0x29217, size: 0x8, addend: 0x0, symName: __ZNSt3__122__compressed_pair_elemINS_9allocatorIPNS_16__hash_node_baseIPNS_11__hash_nodeINS_17__hash_value_typeINS_12basic_stringIcNS_11char_traitsIcEENS1_IcEEEENS_10shared_ptrIN2sf7TextureEEEEEPvEEEEEELi1ELb1EEC2B7v160006ENS_18__default_init_tagE, symObjAddr: 0xA53C, symBinAddr: 0x10000BF00, symSize: 0x2C }
  - { offsetInCU: 0x2924C, offset: 0x2924C, size: 0x8, addend: 0x0, symName: __ZNSt3__19allocatorIPNS_16__hash_node_baseIPNS_11__hash_nodeINS_17__hash_value_typeINS_12basic_stringIcNS_11char_traitsIcEENS0_IcEEEENS_10shared_ptrIN2sf7TextureEEEEEPvEEEEEC2B7v160006Ev, symObjAddr: 0xA568, symBinAddr: 0x10000BF2C, symSize: 0x2C }
  - { offsetInCU: 0x29276, offset: 0x29276, size: 0x8, addend: 0x0, symName: __ZNSt3__116__non_trivial_ifILb1ENS_9allocatorIPNS_16__hash_node_baseIPNS_11__hash_nodeINS_17__hash_value_typeINS_12basic_stringIcNS_11char_traitsIcEENS1_IcEEEENS_10shared_ptrIN2sf7TextureEEEEEPvEEEEEEEC2B7v160006Ev, symObjAddr: 0xA594, symBinAddr: 0x10000BF58, symSize: 0x14 }
  - { offsetInCU: 0x292A0, offset: 0x292A0, size: 0x8, addend: 0x0, symName: __ZNSt3__117__compressed_pairINS_16__hash_node_baseIPNS_11__hash_nodeINS_17__hash_value_typeINS_12basic_stringIcNS_11char_traitsIcEENS_9allocatorIcEEEENS_10shared_ptrIN2sf7TextureEEEEEPvEEEENS7_ISG_EEEC2B7v160006ILb1EvEEv, symObjAddr: 0xA5A8, symBinAddr: 0x10000BF6C, symSize: 0x34 }
  - { offsetInCU: 0x292D5, offset: 0x292D5, size: 0x8, addend: 0x0, symName: __ZNSt3__122__compressed_pair_elemINS_16__hash_node_baseIPNS_11__hash_nodeINS_17__hash_value_typeINS_12basic_stringIcNS_11char_traitsIcEENS_9allocatorIcEEEENS_10shared_ptrIN2sf7TextureEEEEEPvEEEELi0ELb0EEC2B7v160006ENS_16__value_init_tagE, symObjAddr: 0xA5DC, symBinAddr: 0x10000BFA0, symSize: 0x2C }
  - { offsetInCU: 0x2930A, offset: 0x2930A, size: 0x8, addend: 0x0, symName: __ZNSt3__122__compressed_pair_elemINS_9allocatorINS_11__hash_nodeINS_17__hash_value_typeINS_12basic_stringIcNS_11char_traitsIcEENS1_IcEEEENS_10shared_ptrIN2sf7TextureEEEEEPvEEEELi1ELb1EEC2B7v160006ENS_16__value_init_tagE, symObjAddr: 0xA608, symBinAddr: 0x10000BFCC, symSize: 0x2C }
  - { offsetInCU: 0x2933F, offset: 0x2933F, size: 0x8, addend: 0x0, symName: __ZNSt3__116__hash_node_baseIPNS_11__hash_nodeINS_17__hash_value_typeINS_12basic_stringIcNS_11char_traitsIcEENS_9allocatorIcEEEENS_10shared_ptrIN2sf7TextureEEEEEPvEEEC1B7v160006Ev, symObjAddr: 0xA634, symBinAddr: 0x10000BFF8, symSize: 0x2C }
  - { offsetInCU: 0x29369, offset: 0x29369, size: 0x8, addend: 0x0, symName: __ZNSt3__116__hash_node_baseIPNS_11__hash_nodeINS_17__hash_value_typeINS_12basic_stringIcNS_11char_traitsIcEENS_9allocatorIcEEEENS_10shared_ptrIN2sf7TextureEEEEEPvEEEC2B7v160006Ev, symObjAddr: 0xA660, symBinAddr: 0x10000C024, symSize: 0x18 }
  - { offsetInCU: 0x29393, offset: 0x29393, size: 0x8, addend: 0x0, symName: __ZNSt3__19allocatorINS_11__hash_nodeINS_17__hash_value_typeINS_12basic_stringIcNS_11char_traitsIcEENS0_IcEEEENS_10shared_ptrIN2sf7TextureEEEEEPvEEEC2B7v160006Ev, symObjAddr: 0xA678, symBinAddr: 0x10000C03C, symSize: 0x2C }
  - { offsetInCU: 0x293BD, offset: 0x293BD, size: 0x8, addend: 0x0, symName: __ZNSt3__116__non_trivial_ifILb1ENS_9allocatorINS_11__hash_nodeINS_17__hash_value_typeINS_12basic_stringIcNS_11char_traitsIcEENS1_IcEEEENS_10shared_ptrIN2sf7TextureEEEEEPvEEEEEC2B7v160006Ev, symObjAddr: 0xA6A4, symBinAddr: 0x10000C068, symSize: 0x14 }
  - { offsetInCU: 0x293E7, offset: 0x293E7, size: 0x8, addend: 0x0, symName: __ZNSt3__117__compressed_pairImNS_22__unordered_map_hasherINS_12basic_stringIcNS_11char_traitsIcEENS_9allocatorIcEEEENS_17__hash_value_typeIS7_NS_10shared_ptrIN2sf7TextureEEEEENS_4hashIS7_EENS_8equal_toIS7_EELb1EEEEC2B7v160006IiNS_18__default_init_tagEEEOT_OT0_, symObjAddr: 0xA6B8, symBinAddr: 0x10000C07C, symSize: 0x40 }
  - { offsetInCU: 0x2943F, offset: 0x2943F, size: 0x8, addend: 0x0, symName: __ZNSt3__122__compressed_pair_elemINS_22__unordered_map_hasherINS_12basic_stringIcNS_11char_traitsIcEENS_9allocatorIcEEEENS_17__hash_value_typeIS7_NS_10shared_ptrIN2sf7TextureEEEEENS_4hashIS7_EENS_8equal_toIS7_EELb1EEELi1ELb1EEC2B7v160006ENS_18__default_init_tagE, symObjAddr: 0xA6F8, symBinAddr: 0x10000C0BC, symSize: 0x2C }
  - { offsetInCU: 0x29474, offset: 0x29474, size: 0x8, addend: 0x0, symName: __ZNSt3__122__unordered_map_hasherINS_12basic_stringIcNS_11char_traitsIcEENS_9allocatorIcEEEENS_17__hash_value_typeIS6_NS_10shared_ptrIN2sf7TextureEEEEENS_4hashIS6_EENS_8equal_toIS6_EELb1EEC2B7v160006Ev, symObjAddr: 0xA724, symBinAddr: 0x10000C0E8, symSize: 0x14 }
  - { offsetInCU: 0x2949E, offset: 0x2949E, size: 0x8, addend: 0x0, symName: __ZNSt3__117__compressed_pairIfNS_21__unordered_map_equalINS_12basic_stringIcNS_11char_traitsIcEENS_9allocatorIcEEEENS_17__hash_value_typeIS7_NS_10shared_ptrIN2sf7TextureEEEEENS_8equal_toIS7_EENS_4hashIS7_EELb1EEEEC2B7v160006IfNS_18__default_init_tagEEEOT_OT0_, symObjAddr: 0xA738, symBinAddr: 0x10000C0FC, symSize: 0x40 }
  - { offsetInCU: 0x294F6, offset: 0x294F6, size: 0x8, addend: 0x0, symName: __ZNSt3__122__compressed_pair_elemIfLi0ELb0EEC2B7v160006IfvEEOT_, symObjAddr: 0xA778, symBinAddr: 0x10000C13C, symSize: 0x24 }
  - { offsetInCU: 0x29538, offset: 0x29538, size: 0x8, addend: 0x0, symName: __ZNSt3__122__compressed_pair_elemINS_21__unordered_map_equalINS_12basic_stringIcNS_11char_traitsIcEENS_9allocatorIcEEEENS_17__hash_value_typeIS7_NS_10shared_ptrIN2sf7TextureEEEEENS_8equal_toIS7_EENS_4hashIS7_EELb1EEELi1ELb1EEC2B7v160006ENS_18__default_init_tagE, symObjAddr: 0xA79C, symBinAddr: 0x10000C160, symSize: 0x2C }
  - { offsetInCU: 0x2956D, offset: 0x2956D, size: 0x8, addend: 0x0, symName: __ZNSt3__121__unordered_map_equalINS_12basic_stringIcNS_11char_traitsIcEENS_9allocatorIcEEEENS_17__hash_value_typeIS6_NS_10shared_ptrIN2sf7TextureEEEEENS_8equal_toIS6_EENS_4hashIS6_EELb1EEC2B7v160006Ev, symObjAddr: 0xA7C8, symBinAddr: 0x10000C18C, symSize: 0x14 }
  - { offsetInCU: 0x29597, offset: 0x29597, size: 0x8, addend: 0x0, symName: __ZNSt3__110unique_ptrIA_PNS_16__hash_node_baseIPNS_11__hash_nodeINS_17__hash_value_typeINS_12basic_stringIcNS_11char_traitsIcEENS_9allocatorIcEEEENS_10shared_ptrIN2sf7TextureEEEEEPvEEEENS_25__bucket_list_deallocatorINS7_ISJ_EEEEED2B7v160006Ev, symObjAddr: 0xA7DC, symBinAddr: 0x10000C1A0, symSize: 0x30 }
  - { offsetInCU: 0x295C1, offset: 0x295C1, size: 0x8, addend: 0x0, symName: __ZNSt3__110unique_ptrIA_PNS_16__hash_node_baseIPNS_11__hash_nodeINS_17__hash_value_typeINS_12basic_stringIcNS_11char_traitsIcEENS_9allocatorIcEEEENS_10shared_ptrIN2sf7TextureEEEEEPvEEEENS_25__bucket_list_deallocatorINS7_ISJ_EEEEE5resetB7v160006EDn, symObjAddr: 0xA80C, symBinAddr: 0x10000C1D0, symSize: 0x6C }
  - { offsetInCU: 0x29602, offset: 0x29602, size: 0x8, addend: 0x0, symName: __ZNSt3__117__compressed_pairIPPNS_16__hash_node_baseIPNS_11__hash_nodeINS_17__hash_value_typeINS_12basic_stringIcNS_11char_traitsIcEENS_9allocatorIcEEEENS_10shared_ptrIN2sf7TextureEEEEEPvEEEENS_25__bucket_list_deallocatorINS7_ISJ_EEEEE5firstB7v160006Ev, symObjAddr: 0xA878, symBinAddr: 0x10000C23C, symSize: 0x24 }
  - { offsetInCU: 0x29628, offset: 0x29628, size: 0x8, addend: 0x0, symName: __ZNSt3__117__compressed_pairIPPNS_16__hash_node_baseIPNS_11__hash_nodeINS_17__hash_value_typeINS_12basic_stringIcNS_11char_traitsIcEENS_9allocatorIcEEEENS_10shared_ptrIN2sf7TextureEEEEEPvEEEENS_25__bucket_list_deallocatorINS7_ISJ_EEEEE6secondB7v160006Ev, symObjAddr: 0xA89C, symBinAddr: 0x10000C260, symSize: 0x28 }
  - { offsetInCU: 0x2964E, offset: 0x2964E, size: 0x8, addend: 0x0, symName: __ZNSt3__125__bucket_list_deallocatorINS_9allocatorIPNS_16__hash_node_baseIPNS_11__hash_nodeINS_17__hash_value_typeINS_12basic_stringIcNS_11char_traitsIcEENS1_IcEEEENS_10shared_ptrIN2sf7TextureEEEEEPvEEEEEEEclB7v160006EPSJ_, symObjAddr: 0xA8C4, symBinAddr: 0x10000C288, symSize: 0x58 }
  - { offsetInCU: 0x29683, offset: 0x29683, size: 0x8, addend: 0x0, symName: __ZNSt3__122__compressed_pair_elemIPPNS_16__hash_node_baseIPNS_11__hash_nodeINS_17__hash_value_typeINS_12basic_stringIcNS_11char_traitsIcEENS_9allocatorIcEEEENS_10shared_ptrIN2sf7TextureEEEEEPvEEEELi0ELb0EE5__getB7v160006Ev, symObjAddr: 0xA91C, symBinAddr: 0x10000C2E0, symSize: 0x14 }
  - { offsetInCU: 0x296A9, offset: 0x296A9, size: 0x8, addend: 0x0, symName: __ZNSt3__122__compressed_pair_elemINS_25__bucket_list_deallocatorINS_9allocatorIPNS_16__hash_node_baseIPNS_11__hash_nodeINS_17__hash_value_typeINS_12basic_stringIcNS_11char_traitsIcEENS2_IcEEEENS_10shared_ptrIN2sf7TextureEEEEEPvEEEEEEEELi1ELb0EE5__getB7v160006Ev, symObjAddr: 0xA930, symBinAddr: 0x10000C2F4, symSize: 0x14 }
  - { offsetInCU: 0x296CF, offset: 0x296CF, size: 0x8, addend: 0x0, symName: __ZNSt3__116allocator_traitsINS_9allocatorIPNS_16__hash_node_baseIPNS_11__hash_nodeINS_17__hash_value_typeINS_12basic_stringIcNS_11char_traitsIcEENS1_IcEEEENS_10shared_ptrIN2sf7TextureEEEEEPvEEEEEEE10deallocateB7v160006ERSK_PSJ_m, symObjAddr: 0xA944, symBinAddr: 0x10000C308, symSize: 0x34 }
  - { offsetInCU: 0x29711, offset: 0x29711, size: 0x8, addend: 0x0, symName: __ZNSt3__125__bucket_list_deallocatorINS_9allocatorIPNS_16__hash_node_baseIPNS_11__hash_nodeINS_17__hash_value_typeINS_12basic_stringIcNS_11char_traitsIcEENS1_IcEEEENS_10shared_ptrIN2sf7TextureEEEEEPvEEEEEEE7__allocB7v160006Ev, symObjAddr: 0xA978, symBinAddr: 0x10000C33C, symSize: 0x24 }
  - { offsetInCU: 0x29737, offset: 0x29737, size: 0x8, addend: 0x0, symName: __ZNSt3__125__bucket_list_deallocatorINS_9allocatorIPNS_16__hash_node_baseIPNS_11__hash_nodeINS_17__hash_value_typeINS_12basic_stringIcNS_11char_traitsIcEENS1_IcEEEENS_10shared_ptrIN2sf7TextureEEEEEPvEEEEEEE4sizeB7v160006Ev, symObjAddr: 0xA99C, symBinAddr: 0x10000C360, symSize: 0x24 }
  - { offsetInCU: 0x2975D, offset: 0x2975D, size: 0x8, addend: 0x0, symName: __ZNSt3__19allocatorIPNS_16__hash_node_baseIPNS_11__hash_nodeINS_17__hash_value_typeINS_12basic_stringIcNS_11char_traitsIcEENS0_IcEEEENS_10shared_ptrIN2sf7TextureEEEEEPvEEEEE10deallocateB7v160006EPSI_m, symObjAddr: 0xA9C0, symBinAddr: 0x10000C384, symSize: 0x70 }
  - { offsetInCU: 0x2979F, offset: 0x2979F, size: 0x8, addend: 0x0, symName: __ZNSt3__117__compressed_pairImNS_9allocatorIPNS_16__hash_node_baseIPNS_11__hash_nodeINS_17__hash_value_typeINS_12basic_stringIcNS_11char_traitsIcEENS1_IcEEEENS_10shared_ptrIN2sf7TextureEEEEEPvEEEEEEE6secondB7v160006Ev, symObjAddr: 0xAA30, symBinAddr: 0x10000C3F4, symSize: 0x24 }
  - { offsetInCU: 0x297C5, offset: 0x297C5, size: 0x8, addend: 0x0, symName: __ZNSt3__122__compressed_pair_elemINS_9allocatorIPNS_16__hash_node_baseIPNS_11__hash_nodeINS_17__hash_value_typeINS_12basic_stringIcNS_11char_traitsIcEENS1_IcEEEENS_10shared_ptrIN2sf7TextureEEEEEPvEEEEEELi1ELb1EE5__getB7v160006Ev, symObjAddr: 0xAA54, symBinAddr: 0x10000C418, symSize: 0x14 }
  - { offsetInCU: 0x297EB, offset: 0x297EB, size: 0x8, addend: 0x0, symName: __ZNSt3__117__compressed_pairImNS_9allocatorIPNS_16__hash_node_baseIPNS_11__hash_nodeINS_17__hash_value_typeINS_12basic_stringIcNS_11char_traitsIcEENS1_IcEEEENS_10shared_ptrIN2sf7TextureEEEEEPvEEEEEEE5firstB7v160006Ev, symObjAddr: 0xAA68, symBinAddr: 0x10000C42C, symSize: 0x24 }
  - { offsetInCU: 0x29811, offset: 0x29811, size: 0x8, addend: 0x0, symName: __ZNSt3__122__compressed_pair_elemImLi0ELb0EE5__getB7v160006Ev, symObjAddr: 0xAA8C, symBinAddr: 0x10000C450, symSize: 0x14 }
  - { offsetInCU: 0x29837, offset: 0x29837, size: 0x8, addend: 0x0, symName: __ZNSt3__112__hash_tableINS_17__hash_value_typeINS_12basic_stringIcNS_11char_traitsIcEENS_9allocatorIcEEEENS_10shared_ptrIN2sf7TextureEEEEENS_22__unordered_map_hasherIS7_SC_NS_4hashIS7_EENS_8equal_toIS7_EELb1EEENS_21__unordered_map_equalIS7_SC_SH_SF_Lb1EEENS5_ISC_EEED2Ev, symObjAddr: 0xAAA0, symBinAddr: 0x10000C464, symSize: 0x80 }
  - { offsetInCU: 0x29863, offset: 0x29863, size: 0x8, addend: 0x0, symName: __ZNSt3__112__hash_tableINS_17__hash_value_typeINS_12basic_stringIcNS_11char_traitsIcEENS_9allocatorIcEEEENS_10shared_ptrIN2sf7TextureEEEEENS_22__unordered_map_hasherIS7_SC_NS_4hashIS7_EENS_8equal_toIS7_EELb1EEENS_21__unordered_map_equalIS7_SC_SH_SF_Lb1EEENS5_ISC_EEE17__deallocate_nodeEPNS_16__hash_node_baseIPNS_11__hash_nodeISC_PvEEEE, symObjAddr: 0xAB20, symBinAddr: 0x10000C4E4, symSize: 0xBC }
  - { offsetInCU: 0x298CD, offset: 0x298CD, size: 0x8, addend: 0x0, symName: __ZNSt3__117__compressed_pairINS_16__hash_node_baseIPNS_11__hash_nodeINS_17__hash_value_typeINS_12basic_stringIcNS_11char_traitsIcEENS_9allocatorIcEEEENS_10shared_ptrIN2sf7TextureEEEEEPvEEEENS7_ISG_EEE5firstB7v160006Ev, symObjAddr: 0xABDC, symBinAddr: 0x10000C5A0, symSize: 0x24 }
  - { offsetInCU: 0x298F3, offset: 0x298F3, size: 0x8, addend: 0x0, symName: __ZNSt3__112__hash_tableINS_17__hash_value_typeINS_12basic_stringIcNS_11char_traitsIcEENS_9allocatorIcEEEENS_10shared_ptrIN2sf7TextureEEEEENS_22__unordered_map_hasherIS7_SC_NS_4hashIS7_EENS_8equal_toIS7_EELb1EEENS_21__unordered_map_equalIS7_SC_SH_SF_Lb1EEENS5_ISC_EEE12__node_allocB7v160006Ev, symObjAddr: 0xAC10, symBinAddr: 0x10000C5D4, symSize: 0x28 }
  - { offsetInCU: 0x29919, offset: 0x29919, size: 0x8, addend: 0x0, symName: __ZNSt3__116__hash_node_baseIPNS_11__hash_nodeINS_17__hash_value_typeINS_12basic_stringIcNS_11char_traitsIcEENS_9allocatorIcEEEENS_10shared_ptrIN2sf7TextureEEEEEPvEEE8__upcastB7v160006Ev, symObjAddr: 0xAC38, symBinAddr: 0x10000C5FC, symSize: 0x24 }
  - { offsetInCU: 0x2993F, offset: 0x2993F, size: 0x8, addend: 0x0, symName: __ZNSt3__116allocator_traitsINS_9allocatorINS_11__hash_nodeINS_17__hash_value_typeINS_12basic_stringIcNS_11char_traitsIcEENS1_IcEEEENS_10shared_ptrIN2sf7TextureEEEEEPvEEEEE7destroyB7v160006INS_4pairIKS8_SC_EEvvEEvRSG_PT_, symObjAddr: 0xAC5C, symBinAddr: 0x10000C620, symSize: 0x28 }
  - { offsetInCU: 0x2997A, offset: 0x2997A, size: 0x8, addend: 0x0, symName: __ZNSt3__122__hash_key_value_typesINS_17__hash_value_typeINS_12basic_stringIcNS_11char_traitsIcEENS_9allocatorIcEEEENS_10shared_ptrIN2sf7TextureEEEEEE9__get_ptrB7v160006ERSC_, symObjAddr: 0xAC84, symBinAddr: 0x10000C648, symSize: 0x24 }
  - { offsetInCU: 0x2999D, offset: 0x2999D, size: 0x8, addend: 0x0, symName: __ZNSt3__116allocator_traitsINS_9allocatorINS_11__hash_nodeINS_17__hash_value_typeINS_12basic_stringIcNS_11char_traitsIcEENS1_IcEEEENS_10shared_ptrIN2sf7TextureEEEEEPvEEEEE10deallocateB7v160006ERSG_PSF_m, symObjAddr: 0xACA8, symBinAddr: 0x10000C66C, symSize: 0x34 }
  - { offsetInCU: 0x299DF, offset: 0x299DF, size: 0x8, addend: 0x0, symName: __ZNSt3__117__compressed_pairINS_16__hash_node_baseIPNS_11__hash_nodeINS_17__hash_value_typeINS_12basic_stringIcNS_11char_traitsIcEENS_9allocatorIcEEEENS_10shared_ptrIN2sf7TextureEEEEEPvEEEENS7_ISG_EEE6secondB7v160006Ev, symObjAddr: 0xACDC, symBinAddr: 0x10000C6A0, symSize: 0x24 }
  - { offsetInCU: 0x29A05, offset: 0x29A05, size: 0x8, addend: 0x0, symName: __ZNSt3__122__compressed_pair_elemINS_9allocatorINS_11__hash_nodeINS_17__hash_value_typeINS_12basic_stringIcNS_11char_traitsIcEENS1_IcEEEENS_10shared_ptrIN2sf7TextureEEEEEPvEEEELi1ELb1EE5__getB7v160006Ev, symObjAddr: 0xAD00, symBinAddr: 0x10000C6C4, symSize: 0x14 }
  - { offsetInCU: 0x29A2B, offset: 0x29A2B, size: 0x8, addend: 0x0, symName: __ZNSt3__114pointer_traitsIPNS_16__hash_node_baseIPNS_11__hash_nodeINS_17__hash_value_typeINS_12basic_stringIcNS_11char_traitsIcEENS_9allocatorIcEEEENS_10shared_ptrIN2sf7TextureEEEEEPvEEEEE10pointer_toB7v160006ERSI_, symObjAddr: 0xAD14, symBinAddr: 0x10000C6D8, symSize: 0x14 }
  - { offsetInCU: 0x29A4E, offset: 0x29A4E, size: 0x8, addend: 0x0, symName: __ZNSt3__14pairIKNS_12basic_stringIcNS_11char_traitsIcEENS_9allocatorIcEEEENS_10shared_ptrIN2sf7TextureEEEED1Ev, symObjAddr: 0xAD28, symBinAddr: 0x10000C6EC, symSize: 0x2C }
  - { offsetInCU: 0x29A7A, offset: 0x29A7A, size: 0x8, addend: 0x0, symName: __ZNSt3__14pairIKNS_12basic_stringIcNS_11char_traitsIcEENS_9allocatorIcEEEENS_10shared_ptrIN2sf7TextureEEEED2Ev, symObjAddr: 0xAD54, symBinAddr: 0x10000C718, symSize: 0x68 }
  - { offsetInCU: 0x29AA6, offset: 0x29AA6, size: 0x8, addend: 0x0, symName: __ZNSt3__117__hash_value_typeINS_12basic_stringIcNS_11char_traitsIcEENS_9allocatorIcEEEENS_10shared_ptrIN2sf7TextureEEEE11__get_valueB7v160006Ev, symObjAddr: 0xADBC, symBinAddr: 0x10000C780, symSize: 0x14 }
  - { offsetInCU: 0x29ACC, offset: 0x29ACC, size: 0x8, addend: 0x0, symName: __ZNSt3__19allocatorINS_11__hash_nodeINS_17__hash_value_typeINS_12basic_stringIcNS_11char_traitsIcEENS0_IcEEEENS_10shared_ptrIN2sf7TextureEEEEEPvEEE10deallocateB7v160006EPSE_m, symObjAddr: 0xADD0, symBinAddr: 0x10000C794, symSize: 0x74 }
  - { offsetInCU: 0x29B0E, offset: 0x29B0E, size: 0x8, addend: 0x0, symName: __ZNSt3__122__compressed_pair_elemINS_16__hash_node_baseIPNS_11__hash_nodeINS_17__hash_value_typeINS_12basic_stringIcNS_11char_traitsIcEENS_9allocatorIcEEEENS_10shared_ptrIN2sf7TextureEEEEEPvEEEELi0ELb0EE5__getB7v160006Ev, symObjAddr: 0xAE44, symBinAddr: 0x10000C808, symSize: 0x14 }
  - { offsetInCU: 0x29B34, offset: 0x29B34, size: 0x8, addend: 0x0, symName: __ZNSt3__113unordered_mapINS_12basic_stringIcNS_11char_traitsIcEENS_9allocatorIcEEEENS_10shared_ptrIN2sf7TextureEEENS_4hashIS6_EENS_8equal_toIS6_EENS4_INS_4pairIKS6_SA_EEEEED2B7v160006Ev, symObjAddr: 0xAE58, symBinAddr: 0x10000C81C, symSize: 0x2C }
  - { offsetInCU: 0x29B5E, offset: 0x29B5E, size: 0x8, addend: 0x0, symName: __ZNSt3__112basic_stringIcNS_11char_traitsIcEENS_9allocatorIcEEEC2B7v160006IDnEEPKc, symObjAddr: 0xAE84, symBinAddr: 0x10000C848, symSize: 0x60 }
  - { offsetInCU: 0x29B9C, offset: 0x29B9C, size: 0x8, addend: 0x0, symName: __ZNSt3__117__compressed_pairINS_12basic_stringIcNS_11char_traitsIcEENS_9allocatorIcEEE5__repES5_EC1B7v160006INS_18__default_init_tagESA_EEOT_OT0_, symObjAddr: 0xAEE4, symBinAddr: 0x10000C8A8, symSize: 0x3C }
  - { offsetInCU: 0x29BF4, offset: 0x29BF4, size: 0x8, addend: 0x0, symName: __ZNSt3__111char_traitsIcE6lengthEPKc, symObjAddr: 0xAF20, symBinAddr: 0x10000C8E4, symSize: 0x48 }
  - { offsetInCU: 0x29C17, offset: 0x29C17, size: 0x8, addend: 0x0, symName: __ZNSt3__117__compressed_pairINS_12basic_stringIcNS_11char_traitsIcEENS_9allocatorIcEEE5__repES5_EC2B7v160006INS_18__default_init_tagESA_EEOT_OT0_, symObjAddr: 0xAF78, symBinAddr: 0x10000C93C, symSize: 0x3C }
  - { offsetInCU: 0x29C6F, offset: 0x29C6F, size: 0x8, addend: 0x0, symName: __ZNSt3__122__compressed_pair_elemINS_12basic_stringIcNS_11char_traitsIcEENS_9allocatorIcEEE5__repELi0ELb0EEC2B7v160006ENS_18__default_init_tagE, symObjAddr: 0xAFB4, symBinAddr: 0x10000C978, symSize: 0x14 }
  - { offsetInCU: 0x29CA4, offset: 0x29CA4, size: 0x8, addend: 0x0, symName: __ZNSt3__122__compressed_pair_elemINS_9allocatorIcEELi1ELb1EEC2B7v160006ENS_18__default_init_tagE, symObjAddr: 0xAFC8, symBinAddr: 0x10000C98C, symSize: 0x2C }
  - { offsetInCU: 0x29CD9, offset: 0x29CD9, size: 0x8, addend: 0x0, symName: __ZNSt3__19allocatorIcEC2B7v160006Ev, symObjAddr: 0xAFF4, symBinAddr: 0x10000C9B8, symSize: 0x2C }
  - { offsetInCU: 0x29D03, offset: 0x29D03, size: 0x8, addend: 0x0, symName: __ZNSt3__116__non_trivial_ifILb1ENS_9allocatorIcEEEC2B7v160006Ev, symObjAddr: 0xB020, symBinAddr: 0x10000C9E4, symSize: 0x14 }
  - { offsetInCU: 0x29D2D, offset: 0x29D2D, size: 0x8, addend: 0x0, symName: __ZNKSt3__112basic_stringIcNS_11char_traitsIcEENS_9allocatorIcEEE4sizeB7v160006Ev, symObjAddr: 0xB058, symBinAddr: 0x10000CA1C, symSize: 0x54 }
  - { offsetInCU: 0x29D5E, offset: 0x29D5E, size: 0x8, addend: 0x0, symName: __ZNSt3__116allocator_traitsINS_9allocatorIcEEE37select_on_container_copy_constructionB7v160006IS2_vvEES2_RKS2_, symObjAddr: 0xB0AC, symBinAddr: 0x10000CA70, symSize: 0x10 }
  - { offsetInCU: 0x29D8D, offset: 0x29D8D, size: 0x8, addend: 0x0, symName: __ZNKSt3__112basic_stringIcNS_11char_traitsIcEENS_9allocatorIcEEE13get_allocatorB7v160006Ev, symObjAddr: 0xB0BC, symBinAddr: 0x10000CA80, symSize: 0x24 }
  - { offsetInCU: 0x29DB3, offset: 0x29DB3, size: 0x8, addend: 0x0, symName: __ZNSt3__112basic_stringIcNS_11char_traitsIcEENS_9allocatorIcEEEC1B7v160006ENS_24__uninitialized_size_tagEmRKS4_, symObjAddr: 0xB0E0, symBinAddr: 0x10000CAA4, symSize: 0x3C }
  - { offsetInCU: 0x29E07, offset: 0x29E07, size: 0x8, addend: 0x0, symName: __ZNSt3__112basic_stringIcNS_11char_traitsIcEENS_9allocatorIcEEE13__get_pointerB7v160006Ev, symObjAddr: 0xB130, symBinAddr: 0x10000CAF4, symSize: 0x54 }
  - { offsetInCU: 0x29E2D, offset: 0x29E2D, size: 0x8, addend: 0x0, symName: __ZNSt3__111char_traitsIcE4copyEPcPKcm, symObjAddr: 0xB184, symBinAddr: 0x10000CB48, symSize: 0x80 }
  - { offsetInCU: 0x29E6C, offset: 0x29E6C, size: 0x8, addend: 0x0, symName: __ZNKSt3__112basic_stringIcNS_11char_traitsIcEENS_9allocatorIcEEE4dataB7v160006Ev, symObjAddr: 0xB204, symBinAddr: 0x10000CBC8, symSize: 0x28 }
  - { offsetInCU: 0x29E92, offset: 0x29E92, size: 0x8, addend: 0x0, symName: __ZNSt3__111char_traitsIcE6assignEPcmc, symObjAddr: 0xB22C, symBinAddr: 0x10000CBF0, symSize: 0x58 }
  - { offsetInCU: 0x29ED1, offset: 0x29ED1, size: 0x8, addend: 0x0, symName: __ZNKSt3__112basic_stringIcNS_11char_traitsIcEENS_9allocatorIcEEE9__is_longB7v160006Ev, symObjAddr: 0xB284, symBinAddr: 0x10000CC48, symSize: 0x74 }
  - { offsetInCU: 0x29EF7, offset: 0x29EF7, size: 0x8, addend: 0x0, symName: __ZNKSt3__112basic_stringIcNS_11char_traitsIcEENS_9allocatorIcEEE15__get_long_sizeB7v160006Ev, symObjAddr: 0xB2F8, symBinAddr: 0x10000CCBC, symSize: 0x28 }
  - { offsetInCU: 0x29F1D, offset: 0x29F1D, size: 0x8, addend: 0x0, symName: __ZNKSt3__112basic_stringIcNS_11char_traitsIcEENS_9allocatorIcEEE16__get_short_sizeB7v160006Ev, symObjAddr: 0xB320, symBinAddr: 0x10000CCE4, symSize: 0x34 }
  - { offsetInCU: 0x29F43, offset: 0x29F43, size: 0x8, addend: 0x0, symName: __ZNKSt3__117__compressed_pairINS_12basic_stringIcNS_11char_traitsIcEENS_9allocatorIcEEE5__repES5_E5firstB7v160006Ev, symObjAddr: 0xB354, symBinAddr: 0x10000CD18, symSize: 0x24 }
  - { offsetInCU: 0x29F69, offset: 0x29F69, size: 0x8, addend: 0x0, symName: __ZNKSt3__122__compressed_pair_elemINS_12basic_stringIcNS_11char_traitsIcEENS_9allocatorIcEEE5__repELi0ELb0EE5__getB7v160006Ev, symObjAddr: 0xB378, symBinAddr: 0x10000CD3C, symSize: 0x14 }
  - { offsetInCU: 0x29F8F, offset: 0x29F8F, size: 0x8, addend: 0x0, symName: __ZNKSt3__112basic_stringIcNS_11char_traitsIcEENS_9allocatorIcEEE7__allocB7v160006Ev, symObjAddr: 0xB38C, symBinAddr: 0x10000CD50, symSize: 0x24 }
  - { offsetInCU: 0x29FB5, offset: 0x29FB5, size: 0x8, addend: 0x0, symName: __ZNKSt3__117__compressed_pairINS_12basic_stringIcNS_11char_traitsIcEENS_9allocatorIcEEE5__repES5_E6secondB7v160006Ev, symObjAddr: 0xB3B0, symBinAddr: 0x10000CD74, symSize: 0x24 }
  - { offsetInCU: 0x29FDB, offset: 0x29FDB, size: 0x8, addend: 0x0, symName: __ZNKSt3__122__compressed_pair_elemINS_9allocatorIcEELi1ELb1EE5__getB7v160006Ev, symObjAddr: 0xB3D4, symBinAddr: 0x10000CD98, symSize: 0x14 }
  - { offsetInCU: 0x2A001, offset: 0x2A001, size: 0x8, addend: 0x0, symName: __ZNSt3__112basic_stringIcNS_11char_traitsIcEENS_9allocatorIcEEEC2B7v160006ENS_24__uninitialized_size_tagEmRKS4_, symObjAddr: 0xB3E8, symBinAddr: 0x10000CDAC, symSize: 0x118 }
  - { offsetInCU: 0x2A081, offset: 0x2A081, size: 0x8, addend: 0x0, symName: __ZNSt3__117__compressed_pairINS_12basic_stringIcNS_11char_traitsIcEENS_9allocatorIcEEE5__repES5_EC1B7v160006INS_18__default_init_tagERKS5_EEOT_OT0_, symObjAddr: 0xB500, symBinAddr: 0x10000CEC4, symSize: 0x3C }
  - { offsetInCU: 0x2A0D9, offset: 0x2A0D9, size: 0x8, addend: 0x0, symName: __ZNKSt3__112basic_stringIcNS_11char_traitsIcEENS_9allocatorIcEEE8max_sizeB7v160006Ev, symObjAddr: 0xB53C, symBinAddr: 0x10000CF00, symSize: 0xAC }
  - { offsetInCU: 0x2A12B, offset: 0x2A12B, size: 0x8, addend: 0x0, symName: __ZNKSt3__112basic_stringIcNS_11char_traitsIcEENS_9allocatorIcEEE20__throw_length_errorB7v160006Ev, symObjAddr: 0xB5E8, symBinAddr: 0x10000CFAC, symSize: 0x1C }
  - { offsetInCU: 0x2A151, offset: 0x2A151, size: 0x8, addend: 0x0, symName: __ZNSt3__112basic_stringIcNS_11char_traitsIcEENS_9allocatorIcEEE13__fits_in_ssoB7v160006Em, symObjAddr: 0xB604, symBinAddr: 0x10000CFC8, symSize: 0x4C }
  - { offsetInCU: 0x2A175, offset: 0x2A175, size: 0x8, addend: 0x0, symName: __ZNSt3__117__compressed_pairINS_12basic_stringIcNS_11char_traitsIcEENS_9allocatorIcEEE5__repES5_E5firstB7v160006Ev, symObjAddr: 0xB650, symBinAddr: 0x10000D014, symSize: 0x24 }
  - { offsetInCU: 0x2A19B, offset: 0x2A19B, size: 0x8, addend: 0x0, symName: __ZNSt3__112basic_stringIcNS_11char_traitsIcEENS_9allocatorIcEEE16__set_short_sizeB7v160006Em, symObjAddr: 0xB674, symBinAddr: 0x10000D038, symSize: 0x78 }
  - { offsetInCU: 0x2A1D0, offset: 0x2A1D0, size: 0x8, addend: 0x0, symName: __ZNSt3__112basic_stringIcNS_11char_traitsIcEENS_9allocatorIcEEE11__recommendB7v160006Em, symObjAddr: 0xB6EC, symBinAddr: 0x10000D0B0, symSize: 0x9C }
  - { offsetInCU: 0x2A203, offset: 0x2A203, size: 0x8, addend: 0x0, symName: __ZNSt3__116allocator_traitsINS_9allocatorIcEEE8allocateB7v160006ERS2_m, symObjAddr: 0xB788, symBinAddr: 0x10000D14C, symSize: 0x2C }
  - { offsetInCU: 0x2A236, offset: 0x2A236, size: 0x8, addend: 0x0, symName: __ZNSt3__112basic_stringIcNS_11char_traitsIcEENS_9allocatorIcEEE7__allocB7v160006Ev, symObjAddr: 0xB7B4, symBinAddr: 0x10000D178, symSize: 0x24 }
  - { offsetInCU: 0x2A25C, offset: 0x2A25C, size: 0x8, addend: 0x0, symName: __ZNSt3__112basic_stringIcNS_11char_traitsIcEENS_9allocatorIcEEE16__begin_lifetimeB7v160006EPcm, symObjAddr: 0xB7D8, symBinAddr: 0x10000D19C, symSize: 0x14 }
  - { offsetInCU: 0x2A28F, offset: 0x2A28F, size: 0x8, addend: 0x0, symName: __ZNSt3__112basic_stringIcNS_11char_traitsIcEENS_9allocatorIcEEE14__set_long_capB7v160006Em, symObjAddr: 0xB7EC, symBinAddr: 0x10000D1B0, symSize: 0x70 }
  - { offsetInCU: 0x2A2C4, offset: 0x2A2C4, size: 0x8, addend: 0x0, symName: __ZNSt3__112basic_stringIcNS_11char_traitsIcEENS_9allocatorIcEEE18__set_long_pointerB7v160006EPc, symObjAddr: 0xB85C, symBinAddr: 0x10000D220, symSize: 0x38 }
  - { offsetInCU: 0x2A2F9, offset: 0x2A2F9, size: 0x8, addend: 0x0, symName: __ZNSt3__112basic_stringIcNS_11char_traitsIcEENS_9allocatorIcEEE15__set_long_sizeB7v160006Em, symObjAddr: 0xB894, symBinAddr: 0x10000D258, symSize: 0x38 }
  - { offsetInCU: 0x2A32E, offset: 0x2A32E, size: 0x8, addend: 0x0, symName: __ZNSt3__117__compressed_pairINS_12basic_stringIcNS_11char_traitsIcEENS_9allocatorIcEEE5__repES5_EC2B7v160006INS_18__default_init_tagERKS5_EEOT_OT0_, symObjAddr: 0xB8CC, symBinAddr: 0x10000D290, symSize: 0x40 }
  - { offsetInCU: 0x2A386, offset: 0x2A386, size: 0x8, addend: 0x0, symName: __ZNSt3__122__compressed_pair_elemINS_9allocatorIcEELi1ELb1EEC2B7v160006IRKS2_vEEOT_, symObjAddr: 0xB90C, symBinAddr: 0x10000D2D0, symSize: 0x18 }
  - { offsetInCU: 0x2A3C8, offset: 0x2A3C8, size: 0x8, addend: 0x0, symName: __ZNSt3__116allocator_traitsINS_9allocatorIcEEE8max_sizeB7v160006IS2_vEEmRKS2_, symObjAddr: 0xB924, symBinAddr: 0x10000D2E8, symSize: 0x24 }
  - { offsetInCU: 0x2A3F6, offset: 0x2A3F6, size: 0x8, addend: 0x0, symName: __ZNSt3__114numeric_limitsImE3maxB7v160006Ev, symObjAddr: 0xB948, symBinAddr: 0x10000D30C, symSize: 0x14 }
  - { offsetInCU: 0x2A40A, offset: 0x2A40A, size: 0x8, addend: 0x0, symName: __ZNKSt3__19allocatorIcE8max_sizeB7v160006Ev, symObjAddr: 0xB95C, symBinAddr: 0x10000D320, symSize: 0x14 }
  - { offsetInCU: 0x2A430, offset: 0x2A430, size: 0x8, addend: 0x0, symName: __ZNSt3__123__libcpp_numeric_limitsImLb1EE3maxB7v160006Ev, symObjAddr: 0xB970, symBinAddr: 0x10000D334, symSize: 0x8 }
  - { offsetInCU: 0x2A444, offset: 0x2A444, size: 0x8, addend: 0x0, symName: __ZNSt3__122__compressed_pair_elemINS_12basic_stringIcNS_11char_traitsIcEENS_9allocatorIcEEE5__repELi0ELb0EE5__getB7v160006Ev, symObjAddr: 0xB978, symBinAddr: 0x10000D33C, symSize: 0x14 }
  - { offsetInCU: 0x2A46A, offset: 0x2A46A, size: 0x8, addend: 0x0, symName: __ZNSt3__112basic_stringIcNS_11char_traitsIcEENS_9allocatorIcEEE10__align_itB7v160006ILm16EEEmm, symObjAddr: 0xB98C, symBinAddr: 0x10000D350, symSize: 0x1C }
  - { offsetInCU: 0x2A498, offset: 0x2A498, size: 0x8, addend: 0x0, symName: __ZNSt3__19allocatorIcE8allocateB7v160006Em, symObjAddr: 0xB9A8, symBinAddr: 0x10000D36C, symSize: 0x84 }
  - { offsetInCU: 0x2A4CC, offset: 0x2A4CC, size: 0x8, addend: 0x0, symName: __ZNSt3__117__compressed_pairINS_12basic_stringIcNS_11char_traitsIcEENS_9allocatorIcEEE5__repES5_E6secondB7v160006Ev, symObjAddr: 0xBA2C, symBinAddr: 0x10000D3F0, symSize: 0x24 }
  - { offsetInCU: 0x2A4F2, offset: 0x2A4F2, size: 0x8, addend: 0x0, symName: __ZNSt3__122__compressed_pair_elemINS_9allocatorIcEELi1ELb1EE5__getB7v160006Ev, symObjAddr: 0xBA50, symBinAddr: 0x10000D414, symSize: 0x14 }
  - { offsetInCU: 0x2A518, offset: 0x2A518, size: 0x8, addend: 0x0, symName: __ZNSt3__112basic_stringIcNS_11char_traitsIcEENS_9allocatorIcEEE18__get_long_pointerB7v160006Ev, symObjAddr: 0xBA64, symBinAddr: 0x10000D428, symSize: 0x28 }
  - { offsetInCU: 0x2A53E, offset: 0x2A53E, size: 0x8, addend: 0x0, symName: __ZNSt3__112basic_stringIcNS_11char_traitsIcEENS_9allocatorIcEEE19__get_short_pointerB7v160006Ev, symObjAddr: 0xBA8C, symBinAddr: 0x10000D450, symSize: 0x28 }
  - { offsetInCU: 0x2A564, offset: 0x2A564, size: 0x8, addend: 0x0, symName: __ZNSt3__114pointer_traitsIPcE10pointer_toB7v160006ERc, symObjAddr: 0xBAB4, symBinAddr: 0x10000D478, symSize: 0x14 }
  - { offsetInCU: 0x2A5C5, offset: 0x2A5C5, size: 0x8, addend: 0x0, symName: __ZNKSt3__114__copy_trivialclB7v160006IKccLi0EEENS_4pairIPT_PT0_EES5_S5_S7_, symObjAddr: 0xBCF8, symBinAddr: 0x10000D6BC, symSize: 0x48 }
  - { offsetInCU: 0x2A64A, offset: 0x2A64A, size: 0x8, addend: 0x0, symName: __ZNSt3__14pairIPKcS2_EC1B7v160006ERKS2_S5_, symObjAddr: 0xBE74, symBinAddr: 0x10000D838, symSize: 0x3C }
  - { offsetInCU: 0x2A690, offset: 0x2A690, size: 0x8, addend: 0x0, symName: __ZNSt3__14pairIPKcS2_EC2B7v160006ERKS2_S5_, symObjAddr: 0xBEB0, symBinAddr: 0x10000D874, symSize: 0x34 }
  - { offsetInCU: 0x2A6D6, offset: 0x2A6D6, size: 0x8, addend: 0x0, symName: __ZNSt3__118__unwrap_iter_implIPKcLb1EE8__unwrapB7v160006ES2_, symObjAddr: 0xBEE4, symBinAddr: 0x10000D8A8, symSize: 0x24 }
  - { offsetInCU: 0x2A6F9, offset: 0x2A6F9, size: 0x8, addend: 0x0, symName: __ZNSt3__14pairIPKcPcEC1B7v160006ERKS2_RKS3_, symObjAddr: 0xBFD0, symBinAddr: 0x10000D994, symSize: 0x3C }
  - { offsetInCU: 0x2A73F, offset: 0x2A73F, size: 0x8, addend: 0x0, symName: __ZNSt3__14pairIPKcPcEC2B7v160006ERKS2_RKS3_, symObjAddr: 0xC00C, symBinAddr: 0x10000D9D0, symSize: 0x34 }
  - { offsetInCU: 0x2A785, offset: 0x2A785, size: 0x8, addend: 0x0, symName: __ZNSt3__118__unwrap_iter_implIPcLb1EE8__unwrapB7v160006ES1_, symObjAddr: 0xC040, symBinAddr: 0x10000DA04, symSize: 0x24 }
  - { offsetInCU: 0x2A7A8, offset: 0x2A7A8, size: 0x8, addend: 0x0, symName: __ZNSt3__118__unwrap_iter_implIPKcLb1EE8__rewrapB7v160006ES2_S2_, symObjAddr: 0xC0B4, symBinAddr: 0x10000DA78, symSize: 0x48 }
  - { offsetInCU: 0x2A7D9, offset: 0x2A7D9, size: 0x8, addend: 0x0, symName: __ZNSt3__118__unwrap_iter_implIPcLb1EE8__rewrapB7v160006ES1_S1_, symObjAddr: 0xC0FC, symBinAddr: 0x10000DAC0, symSize: 0x48 }
  - { offsetInCU: 0x2A80A, offset: 0x2A80A, size: 0x8, addend: 0x0, symName: __ZNKSt3__112basic_stringIcNS_11char_traitsIcEENS_9allocatorIcEEE13__get_pointerB7v160006Ev, symObjAddr: 0xC144, symBinAddr: 0x10000DB08, symSize: 0x54 }
  - { offsetInCU: 0x2A830, offset: 0x2A830, size: 0x8, addend: 0x0, symName: __ZNKSt3__112basic_stringIcNS_11char_traitsIcEENS_9allocatorIcEEE18__get_long_pointerB7v160006Ev, symObjAddr: 0xC198, symBinAddr: 0x10000DB5C, symSize: 0x28 }
  - { offsetInCU: 0x2A856, offset: 0x2A856, size: 0x8, addend: 0x0, symName: __ZNKSt3__112basic_stringIcNS_11char_traitsIcEENS_9allocatorIcEEE19__get_short_pointerB7v160006Ev, symObjAddr: 0xC1C0, symBinAddr: 0x10000DB84, symSize: 0x28 }
  - { offsetInCU: 0x2A87C, offset: 0x2A87C, size: 0x8, addend: 0x0, symName: __ZNSt3__114pointer_traitsIPKcE10pointer_toB7v160006ERS1_, symObjAddr: 0xC1E8, symBinAddr: 0x10000DBAC, symSize: 0x14 }
  - { offsetInCU: 0x2A89F, offset: 0x2A89F, size: 0x8, addend: 0x0, symName: __ZNSt3__19allocatorIN2sf7TextureEEC1B7v160006Ev, symObjAddr: 0xC348, symBinAddr: 0x10000DD0C, symSize: 0x2C }
  - { offsetInCU: 0x2A90E, offset: 0x2A90E, size: 0x8, addend: 0x0, symName: __ZNSt3__118__allocation_guardINS_9allocatorINS_20__shared_ptr_emplaceIN2sf7TextureENS1_IS4_EEEEEEEC1B7v160006IS5_EET_m, symObjAddr: 0xC374, symBinAddr: 0x10000DD38, symSize: 0x34 }
  - { offsetInCU: 0x2A95D, offset: 0x2A95D, size: 0x8, addend: 0x0, symName: __ZNKSt3__118__allocation_guardINS_9allocatorINS_20__shared_ptr_emplaceIN2sf7TextureENS1_IS4_EEEEEEE5__getB7v160006Ev, symObjAddr: 0xC3A8, symBinAddr: 0x10000DD6C, symSize: 0x18 }
  - { offsetInCU: 0x2A983, offset: 0x2A983, size: 0x8, addend: 0x0, symName: __ZNSt3__120__shared_ptr_emplaceIN2sf7TextureENS_9allocatorIS2_EEEC1B7v160006IJEEES4_DpOT_, symObjAddr: 0xC3C0, symBinAddr: 0x10000DD84, symSize: 0x2C }
  - { offsetInCU: 0x2A9C1, offset: 0x2A9C1, size: 0x8, addend: 0x0, symName: __ZNSt3__118__allocation_guardINS_9allocatorINS_20__shared_ptr_emplaceIN2sf7TextureENS1_IS4_EEEEEEE13__release_ptrB7v160006Ev, symObjAddr: 0xC3EC, symBinAddr: 0x10000DDB0, symSize: 0x24 }
  - { offsetInCU: 0x2A9F5, offset: 0x2A9F5, size: 0x8, addend: 0x0, symName: __ZNSt3__110shared_ptrIN2sf7TextureEE27__create_with_control_blockB7v160006IS2_NS_20__shared_ptr_emplaceIS2_NS_9allocatorIS2_EEEEEES3_PT_PT0_, symObjAddr: 0xC410, symBinAddr: 0x10000DDD4, symSize: 0xC0 }
  - { offsetInCU: 0x2AA4A, offset: 0x2AA4A, size: 0x8, addend: 0x0, symName: __ZNSt3__120__shared_ptr_emplaceIN2sf7TextureENS_9allocatorIS2_EEE10__get_elemB7v160006Ev, symObjAddr: 0xC4D0, symBinAddr: 0x10000DE94, symSize: 0x28 }
  - { offsetInCU: 0x2AA70, offset: 0x2AA70, size: 0x8, addend: 0x0, symName: __ZNSt3__118__allocation_guardINS_9allocatorINS_20__shared_ptr_emplaceIN2sf7TextureENS1_IS4_EEEEEEED1B7v160006Ev, symObjAddr: 0xC4F8, symBinAddr: 0x10000DEBC, symSize: 0x2C }
  - { offsetInCU: 0x2AA9A, offset: 0x2AA9A, size: 0x8, addend: 0x0, symName: __ZNSt3__118__allocation_guardINS_9allocatorINS_20__shared_ptr_emplaceIN2sf7TextureENS1_IS4_EEEEEEEC2B7v160006IS5_EET_m, symObjAddr: 0xC524, symBinAddr: 0x10000DEE8, symSize: 0x50 }
  - { offsetInCU: 0x2AAE9, offset: 0x2AAE9, size: 0x8, addend: 0x0, symName: __ZNSt3__19allocatorINS_20__shared_ptr_emplaceIN2sf7TextureENS0_IS3_EEEEEC1B7v160006IS3_EERKNS0_IT_EE, symObjAddr: 0xC574, symBinAddr: 0x10000DF38, symSize: 0x34 }
  - { offsetInCU: 0x2AB27, offset: 0x2AB27, size: 0x8, addend: 0x0, symName: __ZNSt3__116allocator_traitsINS_9allocatorINS_20__shared_ptr_emplaceIN2sf7TextureENS1_IS4_EEEEEEE8allocateB7v160006ERS7_m, symObjAddr: 0xC5A8, symBinAddr: 0x10000DF6C, symSize: 0x2C }
  - { offsetInCU: 0x2AB5A, offset: 0x2AB5A, size: 0x8, addend: 0x0, symName: __ZNSt3__19allocatorINS_20__shared_ptr_emplaceIN2sf7TextureENS0_IS3_EEEEEC2B7v160006IS3_EERKNS0_IT_EE, symObjAddr: 0xC5D4, symBinAddr: 0x10000DF98, symSize: 0x30 }
  - { offsetInCU: 0x2AB98, offset: 0x2AB98, size: 0x8, addend: 0x0, symName: __ZNSt3__116__non_trivial_ifILb1ENS_9allocatorINS_20__shared_ptr_emplaceIN2sf7TextureENS1_IS4_EEEEEEEC2B7v160006Ev, symObjAddr: 0xC604, symBinAddr: 0x10000DFC8, symSize: 0x14 }
  - { offsetInCU: 0x2ABC2, offset: 0x2ABC2, size: 0x8, addend: 0x0, symName: __ZNSt3__19allocatorINS_20__shared_ptr_emplaceIN2sf7TextureENS0_IS3_EEEEE8allocateB7v160006Em, symObjAddr: 0xC618, symBinAddr: 0x10000DFDC, symSize: 0x84 }
  - { offsetInCU: 0x2AC01, offset: 0x2AC01, size: 0x8, addend: 0x0, symName: __ZNSt3__116allocator_traitsINS_9allocatorINS_20__shared_ptr_emplaceIN2sf7TextureENS1_IS4_EEEEEEE8max_sizeB7v160006IS7_vEEmRKS7_, symObjAddr: 0xC69C, symBinAddr: 0x10000E060, symSize: 0x24 }
  - { offsetInCU: 0x2AC2F, offset: 0x2AC2F, size: 0x8, addend: 0x0, symName: __ZNKSt3__19allocatorINS_20__shared_ptr_emplaceIN2sf7TextureENS0_IS3_EEEEE8max_sizeB7v160006Ev, symObjAddr: 0xC6C0, symBinAddr: 0x10000E084, symSize: 0x14 }
  - { offsetInCU: 0x2AC55, offset: 0x2AC55, size: 0x8, addend: 0x0, symName: __ZNSt3__120__shared_ptr_emplaceIN2sf7TextureENS_9allocatorIS2_EEEC2B7v160006IJEEES4_DpOT_, symObjAddr: 0xC6D4, symBinAddr: 0x10000E098, symSize: 0xBC }
  - { offsetInCU: 0x2AC93, offset: 0x2AC93, size: 0x8, addend: 0x0, symName: __ZNSt3__119__shared_weak_countC2B7v160006El, symObjAddr: 0xC790, symBinAddr: 0x10000E154, symSize: 0x54 }
  - { offsetInCU: 0x2ACCB, offset: 0x2ACCB, size: 0x8, addend: 0x0, symName: __ZNSt3__120__shared_ptr_emplaceIN2sf7TextureENS_9allocatorIS2_EEE8_StorageC1B7v160006EOS4_, symObjAddr: 0xC7E4, symBinAddr: 0x10000E1A8, symSize: 0x34 }
  - { offsetInCU: 0x2AD04, offset: 0x2AD04, size: 0x8, addend: 0x0, symName: __ZNSt3__120__shared_ptr_emplaceIN2sf7TextureENS_9allocatorIS2_EEE8_StorageD1B7v160006Ev, symObjAddr: 0xC818, symBinAddr: 0x10000E1DC, symSize: 0x2C }
  - { offsetInCU: 0x2AD2E, offset: 0x2AD2E, size: 0x8, addend: 0x0, symName: __ZNSt3__120__shared_ptr_emplaceIN2sf7TextureENS_9allocatorIS2_EEED1Ev, symObjAddr: 0xC844, symBinAddr: 0x10000E208, symSize: 0x2C }
  - { offsetInCU: 0x2AD5B, offset: 0x2AD5B, size: 0x8, addend: 0x0, symName: __ZNSt3__120__shared_ptr_emplaceIN2sf7TextureENS_9allocatorIS2_EEED0Ev, symObjAddr: 0xC870, symBinAddr: 0x10000E234, symSize: 0x58 }
  - { offsetInCU: 0x2AD88, offset: 0x2AD88, size: 0x8, addend: 0x0, symName: __ZNSt3__120__shared_ptr_emplaceIN2sf7TextureENS_9allocatorIS2_EEE16__on_zero_sharedEv, symObjAddr: 0xC8C8, symBinAddr: 0x10000E28C, symSize: 0x44 }
  - { offsetInCU: 0x2ADAE, offset: 0x2ADAE, size: 0x8, addend: 0x0, symName: __ZNSt3__120__shared_ptr_emplaceIN2sf7TextureENS_9allocatorIS2_EEE21__on_zero_shared_weakEv, symObjAddr: 0xC90C, symBinAddr: 0x10000E2D0, symSize: 0x74 }
  - { offsetInCU: 0x2ADEF, offset: 0x2ADEF, size: 0x8, addend: 0x0, symName: __ZNSt3__114__shared_countC2B7v160006El, symObjAddr: 0xC980, symBinAddr: 0x10000E344, symSize: 0x30 }
  - { offsetInCU: 0x2AE27, offset: 0x2AE27, size: 0x8, addend: 0x0, symName: __ZNSt3__120__shared_ptr_emplaceIN2sf7TextureENS_9allocatorIS2_EEE8_StorageC2B7v160006EOS4_, symObjAddr: 0xC9B0, symBinAddr: 0x10000E374, symSize: 0x30 }
  - { offsetInCU: 0x2AE60, offset: 0x2AE60, size: 0x8, addend: 0x0, symName: __ZNSt3__120__shared_ptr_emplaceIN2sf7TextureENS_9allocatorIS2_EEE8_Storage11__get_allocEv, symObjAddr: 0xC9E0, symBinAddr: 0x10000E3A4, symSize: 0x3C }
  - { offsetInCU: 0x2AEB3, offset: 0x2AEB3, size: 0x8, addend: 0x0, symName: __ZNSt3__117__compressed_pairINS_9allocatorIN2sf7TextureEEES3_E16__get_first_baseB7v160006EPS5_, symObjAddr: 0xCA1C, symBinAddr: 0x10000E3E0, symSize: 0x14 }
  - { offsetInCU: 0x2AED6, offset: 0x2AED6, size: 0x8, addend: 0x0, symName: __ZNSt3__120__shared_ptr_emplaceIN2sf7TextureENS_9allocatorIS2_EEE8_StorageD2B7v160006Ev, symObjAddr: 0xCA30, symBinAddr: 0x10000E3F4, symSize: 0x2C }
  - { offsetInCU: 0x2AF00, offset: 0x2AF00, size: 0x8, addend: 0x0, symName: __ZNSt3__120__shared_ptr_emplaceIN2sf7TextureENS_9allocatorIS2_EEED2Ev, symObjAddr: 0xCA5C, symBinAddr: 0x10000E420, symSize: 0x78 }
  - { offsetInCU: 0x2AF2D, offset: 0x2AF2D, size: 0x8, addend: 0x0, symName: __ZNSt3__120__shared_ptr_emplaceIN2sf7TextureENS_9allocatorIS2_EEE11__get_allocB7v160006Ev, symObjAddr: 0xCAD4, symBinAddr: 0x10000E498, symSize: 0x28 }
  - { offsetInCU: 0x2AF53, offset: 0x2AF53, size: 0x8, addend: 0x0, symName: __ZNSt3__116allocator_traitsINS_9allocatorINS_20__shared_ptr_emplaceIN2sf7TextureENS1_IS4_EEEEEEE10deallocateB7v160006ERS7_PS6_m, symObjAddr: 0xCAFC, symBinAddr: 0x10000E4C0, symSize: 0x34 }
  - { offsetInCU: 0x2AF95, offset: 0x2AF95, size: 0x8, addend: 0x0, symName: __ZNSt3__114pointer_traitsIPNS_20__shared_ptr_emplaceIN2sf7TextureENS_9allocatorIS3_EEEEE10pointer_toB7v160006ERS6_, symObjAddr: 0xCB30, symBinAddr: 0x10000E4F4, symSize: 0x14 }
  - { offsetInCU: 0x2AFB8, offset: 0x2AFB8, size: 0x8, addend: 0x0, symName: __ZNSt3__19allocatorINS_20__shared_ptr_emplaceIN2sf7TextureENS0_IS3_EEEEE10deallocateB7v160006EPS5_m, symObjAddr: 0xCB44, symBinAddr: 0x10000E508, symSize: 0x70 }
  - { offsetInCU: 0x2AFFA, offset: 0x2AFFA, size: 0x8, addend: 0x0, symName: __ZNSt3__110shared_ptrIN2sf7TextureEEC1B7v160006Ev, symObjAddr: 0xCBB4, symBinAddr: 0x10000E578, symSize: 0x2C }
  - { offsetInCU: 0x2B024, offset: 0x2B024, size: 0x8, addend: 0x0, symName: __ZNSt3__110shared_ptrIN2sf7TextureEE18__enable_weak_thisB7v160006Ez, symObjAddr: 0xCBE0, symBinAddr: 0x10000E5A4, symSize: 0x10 }
  - { offsetInCU: 0x2B04B, offset: 0x2B04B, size: 0x8, addend: 0x0, symName: __ZNSt3__110shared_ptrIN2sf7TextureEEC2B7v160006Ev, symObjAddr: 0xCBF0, symBinAddr: 0x10000E5B4, symSize: 0x1C }
  - { offsetInCU: 0x2B075, offset: 0x2B075, size: 0x8, addend: 0x0, symName: __ZNSt3__120__shared_ptr_emplaceIN2sf7TextureENS_9allocatorIS2_EEE8_Storage10__get_elemEv, symObjAddr: 0xCC0C, symBinAddr: 0x10000E5D0, symSize: 0x3C }
  - { offsetInCU: 0x2B0C8, offset: 0x2B0C8, size: 0x8, addend: 0x0, symName: __ZNSt3__117__compressed_pairINS_9allocatorIN2sf7TextureEEES3_E17__get_second_baseB7v160006EPS5_, symObjAddr: 0xCC48, symBinAddr: 0x10000E60C, symSize: 0x14 }
  - { offsetInCU: 0x2B0EB, offset: 0x2B0EB, size: 0x8, addend: 0x0, symName: __ZNSt3__118__allocation_guardINS_9allocatorINS_20__shared_ptr_emplaceIN2sf7TextureENS1_IS4_EEEEEEED2B7v160006Ev, symObjAddr: 0xCC5C, symBinAddr: 0x10000E620, symSize: 0x58 }
  - { offsetInCU: 0x2B115, offset: 0x2B115, size: 0x8, addend: 0x0, symName: __ZNSt3__19allocatorIN2sf7TextureEEC2B7v160006Ev, symObjAddr: 0xCCB4, symBinAddr: 0x10000E678, symSize: 0x2C }
  - { offsetInCU: 0x2B13F, offset: 0x2B13F, size: 0x8, addend: 0x0, symName: __ZNSt3__116__non_trivial_ifILb1ENS_9allocatorIN2sf7TextureEEEEC2B7v160006Ev, symObjAddr: 0xCCE0, symBinAddr: 0x10000E6A4, symSize: 0x14 }
  - { offsetInCU: 0x2B18C, offset: 0x2B18C, size: 0x8, addend: 0x0, symName: __ZNKSt3__113basic_ostreamIcNS_11char_traitsIcEEE6sentrycvbB7v160006Ev, symObjAddr: 0xCEE8, symBinAddr: 0x10000E8AC, symSize: 0x1C }
  - { offsetInCU: 0x2B1B2, offset: 0x2B1B2, size: 0x8, addend: 0x0, symName: __ZNSt3__119ostreambuf_iteratorIcNS_11char_traitsIcEEEC1B7v160006ERNS_13basic_ostreamIcS2_EE, symObjAddr: 0xD14C, symBinAddr: 0x10000EB10, symSize: 0x34 }
  - { offsetInCU: 0x2B1EA, offset: 0x2B1EA, size: 0x8, addend: 0x0, symName: __ZNKSt3__18ios_base5flagsB7v160006Ev, symObjAddr: 0xD180, symBinAddr: 0x10000EB44, symSize: 0x18 }
  - { offsetInCU: 0x2B212, offset: 0x2B212, size: 0x8, addend: 0x0, symName: __ZNKSt3__19basic_iosIcNS_11char_traitsIcEEE4fillB7v160006Ev, symObjAddr: 0xD198, symBinAddr: 0x10000EB5C, symSize: 0x64 }
  - { offsetInCU: 0x2B23A, offset: 0x2B23A, size: 0x8, addend: 0x0, symName: __ZNKSt3__119ostreambuf_iteratorIcNS_11char_traitsIcEEE6failedB7v160006Ev, symObjAddr: 0xD1FC, symBinAddr: 0x10000EBC0, symSize: 0x24 }
  - { offsetInCU: 0x2B260, offset: 0x2B260, size: 0x8, addend: 0x0, symName: __ZNSt3__19basic_iosIcNS_11char_traitsIcEEE8setstateB7v160006Ej, symObjAddr: 0xD220, symBinAddr: 0x10000EBE4, symSize: 0x2C }
  - { offsetInCU: 0x2B295, offset: 0x2B295, size: 0x8, addend: 0x0, symName: __ZNKSt3__18ios_base5widthB7v160006Ev, symObjAddr: 0xD24C, symBinAddr: 0x10000EC10, symSize: 0x18 }
  - { offsetInCU: 0x2B2BD, offset: 0x2B2BD, size: 0x8, addend: 0x0, symName: __ZNSt3__115basic_streambufIcNS_11char_traitsIcEEE5sputnB7v160006EPKcl, symObjAddr: 0xD264, symBinAddr: 0x10000EC28, symSize: 0x3C }
  - { offsetInCU: 0x2B2FF, offset: 0x2B2FF, size: 0x8, addend: 0x0, symName: __ZNSt3__112basic_stringIcNS_11char_traitsIcEENS_9allocatorIcEEEC1B7v160006Emc, symObjAddr: 0xD2A0, symBinAddr: 0x10000EC64, symSize: 0x3C }
  - { offsetInCU: 0x2B347, offset: 0x2B347, size: 0x8, addend: 0x0, symName: __ZNSt3__18ios_base5widthB7v160006El, symObjAddr: 0xD2DC, symBinAddr: 0x10000ECA0, symSize: 0x2C }
  - { offsetInCU: 0x2B38D, offset: 0x2B38D, size: 0x8, addend: 0x0, symName: __ZNSt3__112basic_stringIcNS_11char_traitsIcEENS_9allocatorIcEEEC2B7v160006Emc, symObjAddr: 0xD308, symBinAddr: 0x10000ECCC, symSize: 0x54 }
  - { offsetInCU: 0x2B3D5, offset: 0x2B3D5, size: 0x8, addend: 0x0, symName: __ZNSt3__119ostreambuf_iteratorIcNS_11char_traitsIcEEEC2B7v160006ERNS_13basic_ostreamIcS2_EE, symObjAddr: 0xD35C, symBinAddr: 0x10000ED20, symSize: 0x68 }
  - { offsetInCU: 0x2B40D, offset: 0x2B40D, size: 0x8, addend: 0x0, symName: __ZNKSt3__19basic_iosIcNS_11char_traitsIcEEE5rdbufB7v160006Ev, symObjAddr: 0xD3C4, symBinAddr: 0x10000ED88, symSize: 0x24 }
  - { offsetInCU: 0x2B435, offset: 0x2B435, size: 0x8, addend: 0x0, symName: __ZNKSt3__18ios_base5rdbufB7v160006Ev, symObjAddr: 0xD3E8, symBinAddr: 0x10000EDAC, symSize: 0x18 }
  - { offsetInCU: 0x2B45B, offset: 0x2B45B, size: 0x8, addend: 0x0, symName: __ZNSt3__111char_traitsIcE11eq_int_typeEii, symObjAddr: 0xD400, symBinAddr: 0x10000EDC4, symSize: 0x28 }
  - { offsetInCU: 0x2B48C, offset: 0x2B48C, size: 0x8, addend: 0x0, symName: __ZNSt3__111char_traitsIcE3eofEv, symObjAddr: 0xD428, symBinAddr: 0x10000EDEC, symSize: 0x8 }
  - { offsetInCU: 0x2B4A0, offset: 0x2B4A0, size: 0x8, addend: 0x0, symName: __ZNKSt3__19basic_iosIcNS_11char_traitsIcEEE5widenB7v160006Ec, symObjAddr: 0xD430, symBinAddr: 0x10000EDF4, symSize: 0x8C }
  - { offsetInCU: 0x2B510, offset: 0x2B510, size: 0x8, addend: 0x0, symName: __ZNKSt3__15ctypeIcE5widenB7v160006Ec, symObjAddr: 0xD4E8, symBinAddr: 0x10000EEAC, symSize: 0x38 }
  - { offsetInCU: 0x2B545, offset: 0x2B545, size: 0x8, addend: 0x0, symName: __ZNSt3__18ios_base8setstateB7v160006Ej, symObjAddr: 0xD520, symBinAddr: 0x10000EEE4, symSize: 0x34 }
  - { offsetInCU: 0x2B57C, offset: 0x2B57C, size: 0x8, addend: 0x0, symName: __ZNSt3__113unordered_mapINS_12basic_stringIcNS_11char_traitsIcEENS_9allocatorIcEEEENS_10shared_ptrIN2sf7TextureEEENS_4hashIS6_EENS_8equal_toIS6_EENS4_INS_4pairIKS6_SA_EEEEE4findB7v160006ERSG_, symObjAddr: 0xD554, symBinAddr: 0x10000EF18, symSize: 0x40 }
  - { offsetInCU: 0x2B5B1, offset: 0x2B5B1, size: 0x8, addend: 0x0, symName: __ZNSt3__113unordered_mapINS_12basic_stringIcNS_11char_traitsIcEENS_9allocatorIcEEEENS_10shared_ptrIN2sf7TextureEEENS_4hashIS6_EENS_8equal_toIS6_EENS4_INS_4pairIKS6_SA_EEEEE3endB7v160006Ev, symObjAddr: 0xD5C4, symBinAddr: 0x10000EF88, symSize: 0x38 }
  - { offsetInCU: 0x2B5D7, offset: 0x2B5D7, size: 0x8, addend: 0x0, symName: __ZNKSt3__119__hash_map_iteratorINS_15__hash_iteratorIPNS_11__hash_nodeINS_17__hash_value_typeINS_12basic_stringIcNS_11char_traitsIcEENS_9allocatorIcEEEENS_10shared_ptrIN2sf7TextureEEEEEPvEEEEEptB7v160006Ev, symObjAddr: 0xD5FC, symBinAddr: 0x10000EFC0, symSize: 0x2C }
  - { offsetInCU: 0x2B5FD, offset: 0x2B5FD, size: 0x8, addend: 0x0, symName: __ZNSt3__113unordered_mapINS_12basic_stringIcNS_11char_traitsIcEENS_9allocatorIcEEEENS_10shared_ptrIN2sf7TextureEEENS_4hashIS6_EENS_8equal_toIS6_EENS4_INS_4pairIKS6_SA_EEEEE25__construct_node_with_keyERSG_, symObjAddr: 0xD628, symBinAddr: 0x10000EFEC, symSize: 0x144 }
  - { offsetInCU: 0x2B653, offset: 0x2B653, size: 0x8, addend: 0x0, symName: __ZNSt3__112__hash_tableINS_17__hash_value_typeINS_12basic_stringIcNS_11char_traitsIcEENS_9allocatorIcEEEENS_10shared_ptrIN2sf7TextureEEEEENS_22__unordered_map_hasherIS7_SC_NS_4hashIS7_EENS_8equal_toIS7_EELb1EEENS_21__unordered_map_equalIS7_SC_SH_SF_Lb1EEENS5_ISC_EEE20__node_insert_uniqueEPNS_11__hash_nodeISC_PvEE, symObjAddr: 0xD76C, symBinAddr: 0x10000F130, symSize: 0xC8 }
  - { offsetInCU: 0x2B6A8, offset: 0x2B6A8, size: 0x8, addend: 0x0, symName: __ZNKSt3__110unique_ptrINS_11__hash_nodeINS_17__hash_value_typeINS_12basic_stringIcNS_11char_traitsIcEENS_9allocatorIcEEEENS_10shared_ptrIN2sf7TextureEEEEEPvEENS_26__hash_map_node_destructorINS6_ISF_EEEEE3getB7v160006Ev, symObjAddr: 0xD834, symBinAddr: 0x10000F1F8, symSize: 0x28 }
  - { offsetInCU: 0x2B6CE, offset: 0x2B6CE, size: 0x8, addend: 0x0, symName: __ZNSt3__14pairINS_19__hash_map_iteratorINS_15__hash_iteratorIPNS_11__hash_nodeINS_17__hash_value_typeINS_12basic_stringIcNS_11char_traitsIcEENS_9allocatorIcEEEENS_10shared_ptrIN2sf7TextureEEEEEPvEEEEEEbEC1B7v160006ISJ_bEERKNS0_IT_T0_EE, symObjAddr: 0xD85C, symBinAddr: 0x10000F220, symSize: 0x34 }
  - { offsetInCU: 0x2B718, offset: 0x2B718, size: 0x8, addend: 0x0, symName: __ZNSt3__110unique_ptrINS_11__hash_nodeINS_17__hash_value_typeINS_12basic_stringIcNS_11char_traitsIcEENS_9allocatorIcEEEENS_10shared_ptrIN2sf7TextureEEEEEPvEENS_26__hash_map_node_destructorINS6_ISF_EEEEE7releaseB7v160006Ev, symObjAddr: 0xD890, symBinAddr: 0x10000F254, symSize: 0x44 }
  - { offsetInCU: 0x2B74D, offset: 0x2B74D, size: 0x8, addend: 0x0, symName: __ZNSt3__110unique_ptrINS_11__hash_nodeINS_17__hash_value_typeINS_12basic_stringIcNS_11char_traitsIcEENS_9allocatorIcEEEENS_10shared_ptrIN2sf7TextureEEEEEPvEENS_26__hash_map_node_destructorINS6_ISF_EEEEED1B7v160006Ev, symObjAddr: 0xD8D4, symBinAddr: 0x10000F298, symSize: 0x2C }
  - { offsetInCU: 0x2B777, offset: 0x2B777, size: 0x8, addend: 0x0, symName: __ZNSt3__112__hash_tableINS_17__hash_value_typeINS_12basic_stringIcNS_11char_traitsIcEENS_9allocatorIcEEEENS_10shared_ptrIN2sf7TextureEEEEENS_22__unordered_map_hasherIS7_SC_NS_4hashIS7_EENS_8equal_toIS7_EELb1EEENS_21__unordered_map_equalIS7_SC_SH_SF_Lb1EEENS5_ISC_EEE4findIS7_EENS_15__hash_iteratorIPNS_11__hash_nodeISC_PvEEEERKT_, symObjAddr: 0xD900, symBinAddr: 0x10000F2C4, symSize: 0x1B4 }
  - { offsetInCU: 0x2B801, offset: 0x2B801, size: 0x8, addend: 0x0, symName: __ZNSt3__119__hash_map_iteratorINS_15__hash_iteratorIPNS_11__hash_nodeINS_17__hash_value_typeINS_12basic_stringIcNS_11char_traitsIcEENS_9allocatorIcEEEENS_10shared_ptrIN2sf7TextureEEEEEPvEEEEEC1B7v160006ESI_, symObjAddr: 0xDAB4, symBinAddr: 0x10000F478, symSize: 0x34 }
  - { offsetInCU: 0x2B83A, offset: 0x2B83A, size: 0x8, addend: 0x0, symName: __ZNSt3__112__hash_tableINS_17__hash_value_typeINS_12basic_stringIcNS_11char_traitsIcEENS_9allocatorIcEEEENS_10shared_ptrIN2sf7TextureEEEEENS_22__unordered_map_hasherIS7_SC_NS_4hashIS7_EENS_8equal_toIS7_EELb1EEENS_21__unordered_map_equalIS7_SC_SH_SF_Lb1EEENS5_ISC_EEE13hash_functionB7v160006Ev, symObjAddr: 0xDAE8, symBinAddr: 0x10000F4AC, symSize: 0x28 }
  - { offsetInCU: 0x2B860, offset: 0x2B860, size: 0x8, addend: 0x0, symName: __ZNKSt3__122__unordered_map_hasherINS_12basic_stringIcNS_11char_traitsIcEENS_9allocatorIcEEEENS_17__hash_value_typeIS6_NS_10shared_ptrIN2sf7TextureEEEEENS_4hashIS6_EENS_8equal_toIS6_EELb1EEclB7v160006ERKS6_, symObjAddr: 0xDB10, symBinAddr: 0x10000F4D4, symSize: 0x2C }
  - { offsetInCU: 0x2B895, offset: 0x2B895, size: 0x8, addend: 0x0, symName: __ZNKSt3__112__hash_tableINS_17__hash_value_typeINS_12basic_stringIcNS_11char_traitsIcEENS_9allocatorIcEEEENS_10shared_ptrIN2sf7TextureEEEEENS_22__unordered_map_hasherIS7_SC_NS_4hashIS7_EENS_8equal_toIS7_EELb1EEENS_21__unordered_map_equalIS7_SC_SH_SF_Lb1EEENS5_ISC_EEE12bucket_countB7v160006Ev, symObjAddr: 0xDB3C, symBinAddr: 0x10000F500, symSize: 0x28 }
  - { offsetInCU: 0x2B8BB, offset: 0x2B8BB, size: 0x8, addend: 0x0, symName: __ZNKSt3__110unique_ptrIA_PNS_16__hash_node_baseIPNS_11__hash_nodeINS_17__hash_value_typeINS_12basic_stringIcNS_11char_traitsIcEENS_9allocatorIcEEEENS_10shared_ptrIN2sf7TextureEEEEEPvEEEENS_25__bucket_list_deallocatorINS7_ISJ_EEEEEixB7v160006Em, symObjAddr: 0xDBFC, symBinAddr: 0x10000F5C0, symSize: 0x34 }
  - { offsetInCU: 0x2B8F0, offset: 0x2B8F0, size: 0x8, addend: 0x0, symName: __ZNKSt3__116__hash_node_baseIPNS_11__hash_nodeINS_17__hash_value_typeINS_12basic_stringIcNS_11char_traitsIcEENS_9allocatorIcEEEENS_10shared_ptrIN2sf7TextureEEEEEPvEEE6__hashB7v160006Ev, symObjAddr: 0xDC30, symBinAddr: 0x10000F5F4, symSize: 0x18 }
  - { offsetInCU: 0x2B916, offset: 0x2B916, size: 0x8, addend: 0x0, symName: __ZNSt3__112__hash_tableINS_17__hash_value_typeINS_12basic_stringIcNS_11char_traitsIcEENS_9allocatorIcEEEENS_10shared_ptrIN2sf7TextureEEEEENS_22__unordered_map_hasherIS7_SC_NS_4hashIS7_EENS_8equal_toIS7_EELb1EEENS_21__unordered_map_equalIS7_SC_SH_SF_Lb1EEENS5_ISC_EEE6key_eqB7v160006Ev, symObjAddr: 0xDC48, symBinAddr: 0x10000F60C, symSize: 0x28 }
  - { offsetInCU: 0x2B93C, offset: 0x2B93C, size: 0x8, addend: 0x0, symName: __ZNKSt3__121__unordered_map_equalINS_12basic_stringIcNS_11char_traitsIcEENS_9allocatorIcEEEENS_17__hash_value_typeIS6_NS_10shared_ptrIN2sf7TextureEEEEENS_8equal_toIS6_EENS_4hashIS6_EELb1EEclB7v160006ERKSC_RKS6_, symObjAddr: 0xDC70, symBinAddr: 0x10000F634, symSize: 0x48 }
  - { offsetInCU: 0x2B980, offset: 0x2B980, size: 0x8, addend: 0x0, symName: __ZNSt3__115__hash_iteratorIPNS_11__hash_nodeINS_17__hash_value_typeINS_12basic_stringIcNS_11char_traitsIcEENS_9allocatorIcEEEENS_10shared_ptrIN2sf7TextureEEEEEPvEEEC1B7v160006EPNS_16__hash_node_baseISG_EEPKv, symObjAddr: 0xDCB8, symBinAddr: 0x10000F67C, symSize: 0x3C }
  - { offsetInCU: 0x2B9C8, offset: 0x2B9C8, size: 0x8, addend: 0x0, symName: __ZNSt3__112__hash_tableINS_17__hash_value_typeINS_12basic_stringIcNS_11char_traitsIcEENS_9allocatorIcEEEENS_10shared_ptrIN2sf7TextureEEEEENS_22__unordered_map_hasherIS7_SC_NS_4hashIS7_EENS_8equal_toIS7_EELb1EEENS_21__unordered_map_equalIS7_SC_SH_SF_Lb1EEENS5_ISC_EEE3endEv, symObjAddr: 0xDCF4, symBinAddr: 0x10000F6B8, symSize: 0x30 }
  - { offsetInCU: 0x2B9F0, offset: 0x2B9F0, size: 0x8, addend: 0x0, symName: __ZNSt3__117__compressed_pairImNS_22__unordered_map_hasherINS_12basic_stringIcNS_11char_traitsIcEENS_9allocatorIcEEEENS_17__hash_value_typeIS7_NS_10shared_ptrIN2sf7TextureEEEEENS_4hashIS7_EENS_8equal_toIS7_EELb1EEEE6secondB7v160006Ev, symObjAddr: 0xDD24, symBinAddr: 0x10000F6E8, symSize: 0x24 }
  - { offsetInCU: 0x2BA16, offset: 0x2BA16, size: 0x8, addend: 0x0, symName: __ZNSt3__122__compressed_pair_elemINS_22__unordered_map_hasherINS_12basic_stringIcNS_11char_traitsIcEENS_9allocatorIcEEEENS_17__hash_value_typeIS7_NS_10shared_ptrIN2sf7TextureEEEEENS_4hashIS7_EENS_8equal_toIS7_EELb1EEELi1ELb1EE5__getB7v160006Ev, symObjAddr: 0xDD48, symBinAddr: 0x10000F70C, symSize: 0x14 }
  - { offsetInCU: 0x2BA3C, offset: 0x2BA3C, size: 0x8, addend: 0x0, symName: __ZNKSt3__113__string_hashIcNS_9allocatorIcEEEclERKNS_12basic_stringIcNS_11char_traitsIcEES2_EE, symObjAddr: 0xDD5C, symBinAddr: 0x10000F720, symSize: 0x78 }
  - { offsetInCU: 0x2BA71, offset: 0x2BA71, size: 0x8, addend: 0x0, symName: __ZNSt3__121__murmur2_or_cityhashImLm64EEclEPKvm, symObjAddr: 0xDE10, symBinAddr: 0x10000F7D4, symSize: 0x410 }
  - { offsetInCU: 0x2BB0C, offset: 0x2BB0C, size: 0x8, addend: 0x0, symName: __ZNSt3__121__murmur2_or_cityhashImLm64EE18__hash_len_0_to_16EPKcm, symObjAddr: 0xE220, symBinAddr: 0x10000FBE4, symSize: 0x1C0 }
  - { offsetInCU: 0x2BBE5, offset: 0x2BBE5, size: 0x8, addend: 0x0, symName: __ZNSt3__121__murmur2_or_cityhashImLm64EE19__hash_len_17_to_32EPKcm, symObjAddr: 0xE3E0, symBinAddr: 0x10000FDA4, symSize: 0x130 }
  - { offsetInCU: 0x2BC4E, offset: 0x2BC4E, size: 0x8, addend: 0x0, symName: __ZNSt3__121__murmur2_or_cityhashImLm64EE19__hash_len_33_to_64EPKcm, symObjAddr: 0xE510, symBinAddr: 0x10000FED4, symSize: 0x2B8 }
  - { offsetInCU: 0x2BD00, offset: 0x2BD00, size: 0x8, addend: 0x0, symName: __ZNSt3__121__murmur2_or_cityhashImLm64EE13__hash_len_16Emm, symObjAddr: 0xE7E8, symBinAddr: 0x1000101AC, symSize: 0x80 }
  - { offsetInCU: 0x2BD5B, offset: 0x2BD5B, size: 0x8, addend: 0x0, symName: __ZNSt3__121__murmur2_or_cityhashImLm64EE29__weak_hash_len_32_with_seedsEPKcmm, symObjAddr: 0xE868, symBinAddr: 0x10001022C, symSize: 0x88 }
  - { offsetInCU: 0x2BD9A, offset: 0x2BD9A, size: 0x8, addend: 0x0, symName: __ZNSt3__121__murmur2_or_cityhashImLm64EE8__rotateEmi, symObjAddr: 0xE8F0, symBinAddr: 0x1000102B4, symSize: 0x64 }
  - { offsetInCU: 0x2BDCB, offset: 0x2BDCB, size: 0x8, addend: 0x0, symName: __ZNSt3__14pairImmEaSB7v160006ERKS1_, symObjAddr: 0xE954, symBinAddr: 0x100010318, symSize: 0x30 }
  - { offsetInCU: 0x2BDFF, offset: 0x2BDFF, size: 0x8, addend: 0x0, symName: __ZNSt3__121__murmur2_or_cityhashImLm64EE11__shift_mixEm, symObjAddr: 0xE9C0, symBinAddr: 0x100010384, symSize: 0x1C }
  - { offsetInCU: 0x2BE22, offset: 0x2BE22, size: 0x8, addend: 0x0, symName: __ZNSt3__121__murmur2_or_cityhashImLm64EE22__rotate_by_at_least_1Emi, symObjAddr: 0xE9DC, symBinAddr: 0x1000103A0, symSize: 0x38 }
  - { offsetInCU: 0x2BE53, offset: 0x2BE53, size: 0x8, addend: 0x0, symName: __ZNSt3__121__murmur2_or_cityhashImLm64EE29__weak_hash_len_32_with_seedsEmmmmmm, symObjAddr: 0xEA34, symBinAddr: 0x1000103F8, symSize: 0xD8 }
  - { offsetInCU: 0x2BECA, offset: 0x2BECA, size: 0x8, addend: 0x0, symName: __ZNSt3__14pairImmEC1B7v160006ERKmS3_, symObjAddr: 0xEB0C, symBinAddr: 0x1000104D0, symSize: 0x3C }
  - { offsetInCU: 0x2BF10, offset: 0x2BF10, size: 0x8, addend: 0x0, symName: __ZNSt3__14pairImmEC2B7v160006ERKmS3_, symObjAddr: 0xEB48, symBinAddr: 0x10001050C, symSize: 0x34 }
  - { offsetInCU: 0x2BF56, offset: 0x2BF56, size: 0x8, addend: 0x0, symName: __ZNKSt3__110unique_ptrIA_PNS_16__hash_node_baseIPNS_11__hash_nodeINS_17__hash_value_typeINS_12basic_stringIcNS_11char_traitsIcEENS_9allocatorIcEEEENS_10shared_ptrIN2sf7TextureEEEEEPvEEEENS_25__bucket_list_deallocatorINS7_ISJ_EEEEE11get_deleterB7v160006Ev, symObjAddr: 0xEB7C, symBinAddr: 0x100010540, symSize: 0x24 }
  - { offsetInCU: 0x2BF7C, offset: 0x2BF7C, size: 0x8, addend: 0x0, symName: __ZNKSt3__125__bucket_list_deallocatorINS_9allocatorIPNS_16__hash_node_baseIPNS_11__hash_nodeINS_17__hash_value_typeINS_12basic_stringIcNS_11char_traitsIcEENS1_IcEEEENS_10shared_ptrIN2sf7TextureEEEEEPvEEEEEEE4sizeB7v160006Ev, symObjAddr: 0xEBA0, symBinAddr: 0x100010564, symSize: 0x28 }
  - { offsetInCU: 0x2BFA2, offset: 0x2BFA2, size: 0x8, addend: 0x0, symName: __ZNKSt3__117__compressed_pairIPPNS_16__hash_node_baseIPNS_11__hash_nodeINS_17__hash_value_typeINS_12basic_stringIcNS_11char_traitsIcEENS_9allocatorIcEEEENS_10shared_ptrIN2sf7TextureEEEEEPvEEEENS_25__bucket_list_deallocatorINS7_ISJ_EEEEE6secondB7v160006Ev, symObjAddr: 0xEBC8, symBinAddr: 0x10001058C, symSize: 0x28 }
  - { offsetInCU: 0x2BFC8, offset: 0x2BFC8, size: 0x8, addend: 0x0, symName: __ZNKSt3__122__compressed_pair_elemINS_25__bucket_list_deallocatorINS_9allocatorIPNS_16__hash_node_baseIPNS_11__hash_nodeINS_17__hash_value_typeINS_12basic_stringIcNS_11char_traitsIcEENS2_IcEEEENS_10shared_ptrIN2sf7TextureEEEEEPvEEEEEEEELi1ELb0EE5__getB7v160006Ev, symObjAddr: 0xEBF0, symBinAddr: 0x1000105B4, symSize: 0x14 }
  - { offsetInCU: 0x2BFEE, offset: 0x2BFEE, size: 0x8, addend: 0x0, symName: __ZNKSt3__117__compressed_pairImNS_9allocatorIPNS_16__hash_node_baseIPNS_11__hash_nodeINS_17__hash_value_typeINS_12basic_stringIcNS_11char_traitsIcEENS1_IcEEEENS_10shared_ptrIN2sf7TextureEEEEEPvEEEEEEE5firstB7v160006Ev, symObjAddr: 0xEC04, symBinAddr: 0x1000105C8, symSize: 0x24 }
  - { offsetInCU: 0x2C014, offset: 0x2C014, size: 0x8, addend: 0x0, symName: __ZNKSt3__122__compressed_pair_elemImLi0ELb0EE5__getB7v160006Ev, symObjAddr: 0xEC28, symBinAddr: 0x1000105EC, symSize: 0x14 }
  - { offsetInCU: 0x2C03A, offset: 0x2C03A, size: 0x8, addend: 0x0, symName: __ZNKSt3__117__compressed_pairIPPNS_16__hash_node_baseIPNS_11__hash_nodeINS_17__hash_value_typeINS_12basic_stringIcNS_11char_traitsIcEENS_9allocatorIcEEEENS_10shared_ptrIN2sf7TextureEEEEEPvEEEENS_25__bucket_list_deallocatorINS7_ISJ_EEEEE5firstB7v160006Ev, symObjAddr: 0xEC3C, symBinAddr: 0x100010600, symSize: 0x24 }
  - { offsetInCU: 0x2C060, offset: 0x2C060, size: 0x8, addend: 0x0, symName: __ZNKSt3__122__compressed_pair_elemIPPNS_16__hash_node_baseIPNS_11__hash_nodeINS_17__hash_value_typeINS_12basic_stringIcNS_11char_traitsIcEENS_9allocatorIcEEEENS_10shared_ptrIN2sf7TextureEEEEEPvEEEELi0ELb0EE5__getB7v160006Ev, symObjAddr: 0xEC60, symBinAddr: 0x100010624, symSize: 0x14 }
  - { offsetInCU: 0x2C086, offset: 0x2C086, size: 0x8, addend: 0x0, symName: __ZNSt3__117__compressed_pairIfNS_21__unordered_map_equalINS_12basic_stringIcNS_11char_traitsIcEENS_9allocatorIcEEEENS_17__hash_value_typeIS7_NS_10shared_ptrIN2sf7TextureEEEEENS_8equal_toIS7_EENS_4hashIS7_EELb1EEEE6secondB7v160006Ev, symObjAddr: 0xEC74, symBinAddr: 0x100010638, symSize: 0x24 }
  - { offsetInCU: 0x2C0AC, offset: 0x2C0AC, size: 0x8, addend: 0x0, symName: __ZNSt3__122__compressed_pair_elemINS_21__unordered_map_equalINS_12basic_stringIcNS_11char_traitsIcEENS_9allocatorIcEEEENS_17__hash_value_typeIS7_NS_10shared_ptrIN2sf7TextureEEEEENS_8equal_toIS7_EENS_4hashIS7_EELb1EEELi1ELb1EE5__getB7v160006Ev, symObjAddr: 0xEC98, symBinAddr: 0x10001065C, symSize: 0x14 }
  - { offsetInCU: 0x2C0D2, offset: 0x2C0D2, size: 0x8, addend: 0x0, symName: __ZNKSt3__18equal_toINS_12basic_stringIcNS_11char_traitsIcEENS_9allocatorIcEEEEEclB7v160006ERKS6_S9_, symObjAddr: 0xECAC, symBinAddr: 0x100010670, symSize: 0x34 }
  - { offsetInCU: 0x2C116, offset: 0x2C116, size: 0x8, addend: 0x0, symName: __ZNKSt3__117__hash_value_typeINS_12basic_stringIcNS_11char_traitsIcEENS_9allocatorIcEEEENS_10shared_ptrIN2sf7TextureEEEE11__get_valueB7v160006Ev, symObjAddr: 0xECE0, symBinAddr: 0x1000106A4, symSize: 0x14 }
  - { offsetInCU: 0x2C13C, offset: 0x2C13C, size: 0x8, addend: 0x0, symName: __ZNSt3__111char_traitsIcE7compareEPKcS3_m, symObjAddr: 0xEE3C, symBinAddr: 0x100010800, symSize: 0x80 }
  - { offsetInCU: 0x2C17B, offset: 0x2C17B, size: 0x8, addend: 0x0, symName: __ZNSt3__115__hash_iteratorIPNS_11__hash_nodeINS_17__hash_value_typeINS_12basic_stringIcNS_11char_traitsIcEENS_9allocatorIcEEEENS_10shared_ptrIN2sf7TextureEEEEEPvEEEC2B7v160006EPNS_16__hash_node_baseISG_EEPKv, symObjAddr: 0xEEF0, symBinAddr: 0x1000108B4, symSize: 0x24 }
  - { offsetInCU: 0x2C1C3, offset: 0x2C1C3, size: 0x8, addend: 0x0, symName: __ZNSt3__119__hash_map_iteratorINS_15__hash_iteratorIPNS_11__hash_nodeINS_17__hash_value_typeINS_12basic_stringIcNS_11char_traitsIcEENS_9allocatorIcEEEENS_10shared_ptrIN2sf7TextureEEEEEPvEEEEEC2B7v160006ESI_, symObjAddr: 0xEF14, symBinAddr: 0x1000108D8, symSize: 0x20 }
  - { offsetInCU: 0x2C1FC, offset: 0x2C1FC, size: 0x8, addend: 0x0, symName: __ZNSt3__114pointer_traitsIPNS_4pairIKNS_12basic_stringIcNS_11char_traitsIcEENS_9allocatorIcEEEENS_10shared_ptrIN2sf7TextureEEEEEE10pointer_toB7v160006ERSD_, symObjAddr: 0xEF98, symBinAddr: 0x10001095C, symSize: 0x14 }
  - { offsetInCU: 0x2C21F, offset: 0x2C21F, size: 0x8, addend: 0x0, symName: __ZNKSt3__115__hash_iteratorIPNS_11__hash_nodeINS_17__hash_value_typeINS_12basic_stringIcNS_11char_traitsIcEENS_9allocatorIcEEEENS_10shared_ptrIN2sf7TextureEEEEEPvEEEptB7v160006Ev, symObjAddr: 0xEFAC, symBinAddr: 0x100010970, symSize: 0x30 }
  - { offsetInCU: 0x2C245, offset: 0x2C245, size: 0x8, addend: 0x0, symName: __ZNSt3__114pointer_traitsIPNS_17__hash_value_typeINS_12basic_stringIcNS_11char_traitsIcEENS_9allocatorIcEEEENS_10shared_ptrIN2sf7TextureEEEEEE10pointer_toB7v160006ERSC_, symObjAddr: 0xEFDC, symBinAddr: 0x1000109A0, symSize: 0x14 }
  - { offsetInCU: 0x2C268, offset: 0x2C268, size: 0x8, addend: 0x0, symName: __ZNSt3__116allocator_traitsINS_9allocatorINS_11__hash_nodeINS_17__hash_value_typeINS_12basic_stringIcNS_11char_traitsIcEENS1_IcEEEENS_10shared_ptrIN2sf7TextureEEEEEPvEEEEE8allocateB7v160006ERSG_m, symObjAddr: 0xEFF0, symBinAddr: 0x1000109B4, symSize: 0x2C }
  - { offsetInCU: 0x2C29B, offset: 0x2C29B, size: 0x8, addend: 0x0, symName: __ZNSt3__126__hash_map_node_destructorINS_9allocatorINS_11__hash_nodeINS_17__hash_value_typeINS_12basic_stringIcNS_11char_traitsIcEENS1_IcEEEENS_10shared_ptrIN2sf7TextureEEEEEPvEEEEEC1B7v160006ERSG_, symObjAddr: 0xF01C, symBinAddr: 0x1000109E0, symSize: 0x34 }
  - { offsetInCU: 0x2C2DA, offset: 0x2C2DA, size: 0x8, addend: 0x0, symName: __ZNSt3__110unique_ptrINS_11__hash_nodeINS_17__hash_value_typeINS_12basic_stringIcNS_11char_traitsIcEENS_9allocatorIcEEEENS_10shared_ptrIN2sf7TextureEEEEEPvEENS_26__hash_map_node_destructorINS6_ISF_EEEEEC1B7v160006ILb1EvEEPSF_NS_16__dependent_typeINS_27__unique_ptr_deleter_sfinaeISI_EEXT_EE20__good_rval_ref_typeE, symObjAddr: 0xF050, symBinAddr: 0x100010A14, symSize: 0x3C }
  - { offsetInCU: 0x2C331, offset: 0x2C331, size: 0x8, addend: 0x0, symName: __ZNSt3__116allocator_traitsINS_9allocatorINS_11__hash_nodeINS_17__hash_value_typeINS_12basic_stringIcNS_11char_traitsIcEENS1_IcEEEENS_10shared_ptrIN2sf7TextureEEEEEPvEEEEE9constructB7v160006IKS8_JRSJ_EvEEvRSG_PT_DpOT0_, symObjAddr: 0xF08C, symBinAddr: 0x100010A50, symSize: 0x34 }
  - { offsetInCU: 0x2C388, offset: 0x2C388, size: 0x8, addend: 0x0, symName: __ZNKSt3__110unique_ptrINS_11__hash_nodeINS_17__hash_value_typeINS_12basic_stringIcNS_11char_traitsIcEENS_9allocatorIcEEEENS_10shared_ptrIN2sf7TextureEEEEEPvEENS_26__hash_map_node_destructorINS6_ISF_EEEEEptB7v160006Ev, symObjAddr: 0xF0C0, symBinAddr: 0x100010A84, symSize: 0x28 }
  - { offsetInCU: 0x2C3AE, offset: 0x2C3AE, size: 0x8, addend: 0x0, symName: __ZNSt3__110unique_ptrINS_11__hash_nodeINS_17__hash_value_typeINS_12basic_stringIcNS_11char_traitsIcEENS_9allocatorIcEEEENS_10shared_ptrIN2sf7TextureEEEEEPvEENS_26__hash_map_node_destructorINS6_ISF_EEEEE11get_deleterB7v160006Ev, symObjAddr: 0xF0E8, symBinAddr: 0x100010AAC, symSize: 0x24 }
  - { offsetInCU: 0x2C3DA, offset: 0x2C3DA, size: 0x8, addend: 0x0, symName: __ZNSt3__116allocator_traitsINS_9allocatorINS_11__hash_nodeINS_17__hash_value_typeINS_12basic_stringIcNS_11char_traitsIcEENS1_IcEEEENS_10shared_ptrIN2sf7TextureEEEEEPvEEEEE9constructB7v160006ISC_JEvEEvRSG_PT_DpOT0_, symObjAddr: 0xF10C, symBinAddr: 0x100010AD0, symSize: 0x2C }
  - { offsetInCU: 0x2C41C, offset: 0x2C41C, size: 0x8, addend: 0x0, symName: __ZNSt3__19allocatorINS_11__hash_nodeINS_17__hash_value_typeINS_12basic_stringIcNS_11char_traitsIcEENS0_IcEEEENS_10shared_ptrIN2sf7TextureEEEEEPvEEE8allocateB7v160006Em, symObjAddr: 0xF138, symBinAddr: 0x100010AFC, symSize: 0x8C }
  - { offsetInCU: 0x2C45B, offset: 0x2C45B, size: 0x8, addend: 0x0, symName: __ZNSt3__116allocator_traitsINS_9allocatorINS_11__hash_nodeINS_17__hash_value_typeINS_12basic_stringIcNS_11char_traitsIcEENS1_IcEEEENS_10shared_ptrIN2sf7TextureEEEEEPvEEEEE8max_sizeB7v160006ISG_vEEmRKSG_, symObjAddr: 0xF1C4, symBinAddr: 0x100010B88, symSize: 0x24 }
  - { offsetInCU: 0x2C489, offset: 0x2C489, size: 0x8, addend: 0x0, symName: __ZNKSt3__19allocatorINS_11__hash_nodeINS_17__hash_value_typeINS_12basic_stringIcNS_11char_traitsIcEENS0_IcEEEENS_10shared_ptrIN2sf7TextureEEEEEPvEEE8max_sizeB7v160006Ev, symObjAddr: 0xF1E8, symBinAddr: 0x100010BAC, symSize: 0x20 }
  - { offsetInCU: 0x2C4AF, offset: 0x2C4AF, size: 0x8, addend: 0x0, symName: __ZNSt3__126__hash_map_node_destructorINS_9allocatorINS_11__hash_nodeINS_17__hash_value_typeINS_12basic_stringIcNS_11char_traitsIcEENS1_IcEEEENS_10shared_ptrIN2sf7TextureEEEEEPvEEEEEC2B7v160006ERSG_, symObjAddr: 0xF208, symBinAddr: 0x100010BCC, symSize: 0x28 }
  - { offsetInCU: 0x2C4E8, offset: 0x2C4E8, size: 0x8, addend: 0x0, symName: __ZNSt3__110unique_ptrINS_11__hash_nodeINS_17__hash_value_typeINS_12basic_stringIcNS_11char_traitsIcEENS_9allocatorIcEEEENS_10shared_ptrIN2sf7TextureEEEEEPvEENS_26__hash_map_node_destructorINS6_ISF_EEEEEC2B7v160006ILb1EvEEPSF_NS_16__dependent_typeINS_27__unique_ptr_deleter_sfinaeISI_EEXT_EE20__good_rval_ref_typeE, symObjAddr: 0xF230, symBinAddr: 0x100010BF4, symSize: 0x5C }
  - { offsetInCU: 0x2C539, offset: 0x2C539, size: 0x8, addend: 0x0, symName: __ZNSt3__117__compressed_pairIPNS_11__hash_nodeINS_17__hash_value_typeINS_12basic_stringIcNS_11char_traitsIcEENS_9allocatorIcEEEENS_10shared_ptrIN2sf7TextureEEEEEPvEENS_26__hash_map_node_destructorINS6_ISF_EEEEEC1B7v160006IRSG_SJ_EEOT_OT0_, symObjAddr: 0xF28C, symBinAddr: 0x100010C50, symSize: 0x3C }
  - { offsetInCU: 0x2C591, offset: 0x2C591, size: 0x8, addend: 0x0, symName: __ZNSt3__117__compressed_pairIPNS_11__hash_nodeINS_17__hash_value_typeINS_12basic_stringIcNS_11char_traitsIcEENS_9allocatorIcEEEENS_10shared_ptrIN2sf7TextureEEEEEPvEENS_26__hash_map_node_destructorINS6_ISF_EEEEEC2B7v160006IRSG_SJ_EEOT_OT0_, symObjAddr: 0xF2C8, symBinAddr: 0x100010C8C, symSize: 0x48 }
  - { offsetInCU: 0x2C5E9, offset: 0x2C5E9, size: 0x8, addend: 0x0, symName: __ZNSt3__122__compressed_pair_elemIPNS_11__hash_nodeINS_17__hash_value_typeINS_12basic_stringIcNS_11char_traitsIcEENS_9allocatorIcEEEENS_10shared_ptrIN2sf7TextureEEEEEPvEELi0ELb0EEC2B7v160006IRSG_vEEOT_, symObjAddr: 0xF310, symBinAddr: 0x100010CD4, symSize: 0x24 }
  - { offsetInCU: 0x2C62B, offset: 0x2C62B, size: 0x8, addend: 0x0, symName: __ZNSt3__122__compressed_pair_elemINS_26__hash_map_node_destructorINS_9allocatorINS_11__hash_nodeINS_17__hash_value_typeINS_12basic_stringIcNS_11char_traitsIcEENS2_IcEEEENS_10shared_ptrIN2sf7TextureEEEEEPvEEEEEELi1ELb0EEC2B7v160006ISI_vEEOT_, symObjAddr: 0xF334, symBinAddr: 0x100010CF8, symSize: 0x24 }
  - { offsetInCU: 0x2C66D, offset: 0x2C66D, size: 0x8, addend: 0x0, symName: __ZNSt3__19allocatorINS_11__hash_nodeINS_17__hash_value_typeINS_12basic_stringIcNS_11char_traitsIcEENS0_IcEEEENS_10shared_ptrIN2sf7TextureEEEEEPvEEE9constructB7v160006IKS7_JRSH_EEEvPT_DpOT0_, symObjAddr: 0xF358, symBinAddr: 0x100010D1C, symSize: 0x30 }
  - { offsetInCU: 0x2C6C3, offset: 0x2C6C3, size: 0x8, addend: 0x0, symName: __ZNKSt3__117__compressed_pairIPNS_11__hash_nodeINS_17__hash_value_typeINS_12basic_stringIcNS_11char_traitsIcEENS_9allocatorIcEEEENS_10shared_ptrIN2sf7TextureEEEEEPvEENS_26__hash_map_node_destructorINS6_ISF_EEEEE5firstB7v160006Ev, symObjAddr: 0xF388, symBinAddr: 0x100010D4C, symSize: 0x24 }
  - { offsetInCU: 0x2C6E9, offset: 0x2C6E9, size: 0x8, addend: 0x0, symName: __ZNKSt3__122__compressed_pair_elemIPNS_11__hash_nodeINS_17__hash_value_typeINS_12basic_stringIcNS_11char_traitsIcEENS_9allocatorIcEEEENS_10shared_ptrIN2sf7TextureEEEEEPvEELi0ELb0EE5__getB7v160006Ev, symObjAddr: 0xF3AC, symBinAddr: 0x100010D70, symSize: 0x14 }
  - { offsetInCU: 0x2C70F, offset: 0x2C70F, size: 0x8, addend: 0x0, symName: __ZNSt3__117__compressed_pairIPNS_11__hash_nodeINS_17__hash_value_typeINS_12basic_stringIcNS_11char_traitsIcEENS_9allocatorIcEEEENS_10shared_ptrIN2sf7TextureEEEEEPvEENS_26__hash_map_node_destructorINS6_ISF_EEEEE6secondB7v160006Ev, symObjAddr: 0xF3C0, symBinAddr: 0x100010D84, symSize: 0x28 }
  - { offsetInCU: 0x2C735, offset: 0x2C735, size: 0x8, addend: 0x0, symName: __ZNSt3__122__compressed_pair_elemINS_26__hash_map_node_destructorINS_9allocatorINS_11__hash_nodeINS_17__hash_value_typeINS_12basic_stringIcNS_11char_traitsIcEENS2_IcEEEENS_10shared_ptrIN2sf7TextureEEEEEPvEEEEEELi1ELb0EE5__getB7v160006Ev, symObjAddr: 0xF3E8, symBinAddr: 0x100010DAC, symSize: 0x14 }
  - { offsetInCU: 0x2C75B, offset: 0x2C75B, size: 0x8, addend: 0x0, symName: __ZNSt3__19allocatorINS_11__hash_nodeINS_17__hash_value_typeINS_12basic_stringIcNS_11char_traitsIcEENS0_IcEEEENS_10shared_ptrIN2sf7TextureEEEEEPvEEE9constructB7v160006ISB_JEEEvPT_DpOT0_, symObjAddr: 0xF3FC, symBinAddr: 0x100010DC0, symSize: 0x28 }
  - { offsetInCU: 0x2C79D, offset: 0x2C79D, size: 0x8, addend: 0x0, symName: __ZNKSt3__122__unordered_map_hasherINS_12basic_stringIcNS_11char_traitsIcEENS_9allocatorIcEEEENS_17__hash_value_typeIS6_NS_10shared_ptrIN2sf7TextureEEEEENS_4hashIS6_EENS_8equal_toIS6_EELb1EEclB7v160006ERKSC_, symObjAddr: 0xF424, symBinAddr: 0x100010DE8, symSize: 0x3C }
  - { offsetInCU: 0x2C7D2, offset: 0x2C7D2, size: 0x8, addend: 0x0, symName: __ZNSt3__112__hash_tableINS_17__hash_value_typeINS_12basic_stringIcNS_11char_traitsIcEENS_9allocatorIcEEEENS_10shared_ptrIN2sf7TextureEEEEENS_22__unordered_map_hasherIS7_SC_NS_4hashIS7_EENS_8equal_toIS7_EELb1EEENS_21__unordered_map_equalIS7_SC_SH_SF_Lb1EEENS5_ISC_EEE28__node_insert_unique_prepareB7v160006EmRSC_, symObjAddr: 0xF460, symBinAddr: 0x100010E24, symSize: 0x244 }
  - { offsetInCU: 0x2C853, offset: 0x2C853, size: 0x8, addend: 0x0, symName: __ZNSt3__112__hash_tableINS_17__hash_value_typeINS_12basic_stringIcNS_11char_traitsIcEENS_9allocatorIcEEEENS_10shared_ptrIN2sf7TextureEEEEENS_22__unordered_map_hasherIS7_SC_NS_4hashIS7_EENS_8equal_toIS7_EELb1EEENS_21__unordered_map_equalIS7_SC_SH_SF_Lb1EEENS5_ISC_EEE28__node_insert_unique_performB7v160006EPNS_11__hash_nodeISC_PvEE, symObjAddr: 0xF6A4, symBinAddr: 0x100011068, symSize: 0x154 }
  - { offsetInCU: 0x2C8B7, offset: 0x2C8B7, size: 0x8, addend: 0x0, symName: __ZNSt3__116__hash_node_baseIPNS_11__hash_nodeINS_17__hash_value_typeINS_12basic_stringIcNS_11char_traitsIcEENS_9allocatorIcEEEENS_10shared_ptrIN2sf7TextureEEEEEPvEEE5__ptrB7v160006Ev, symObjAddr: 0xF7F8, symBinAddr: 0x1000111BC, symSize: 0x24 }
  - { offsetInCU: 0x2C8DD, offset: 0x2C8DD, size: 0x8, addend: 0x0, symName: __ZNSt3__14pairINS_15__hash_iteratorIPNS_11__hash_nodeINS_17__hash_value_typeINS_12basic_stringIcNS_11char_traitsIcEENS_9allocatorIcEEEENS_10shared_ptrIN2sf7TextureEEEEEPvEEEEbEC1B7v160006ERKSI_RKb, symObjAddr: 0xF81C, symBinAddr: 0x1000111E0, symSize: 0x3C }
  - { offsetInCU: 0x2C923, offset: 0x2C923, size: 0x8, addend: 0x0, symName: __ZNKSt3__121__unordered_map_equalINS_12basic_stringIcNS_11char_traitsIcEENS_9allocatorIcEEEENS_17__hash_value_typeIS6_NS_10shared_ptrIN2sf7TextureEEEEENS_8equal_toIS6_EENS_4hashIS6_EELb1EEclB7v160006ERKSC_SJ_, symObjAddr: 0xF858, symBinAddr: 0x10001121C, symSize: 0x54 }
  - { offsetInCU: 0x2C967, offset: 0x2C967, size: 0x8, addend: 0x0, symName: __ZNSt3__112__hash_tableINS_17__hash_value_typeINS_12basic_stringIcNS_11char_traitsIcEENS_9allocatorIcEEEENS_10shared_ptrIN2sf7TextureEEEEENS_22__unordered_map_hasherIS7_SC_NS_4hashIS7_EENS_8equal_toIS7_EELb1EEENS_21__unordered_map_equalIS7_SC_SH_SF_Lb1EEENS5_ISC_EEE4sizeB7v160006Ev, symObjAddr: 0xF8AC, symBinAddr: 0x100011270, symSize: 0x28 }
  - { offsetInCU: 0x2C98D, offset: 0x2C98D, size: 0x8, addend: 0x0, symName: __ZNSt3__112__hash_tableINS_17__hash_value_typeINS_12basic_stringIcNS_11char_traitsIcEENS_9allocatorIcEEEENS_10shared_ptrIN2sf7TextureEEEEENS_22__unordered_map_hasherIS7_SC_NS_4hashIS7_EENS_8equal_toIS7_EELb1EEENS_21__unordered_map_equalIS7_SC_SH_SF_Lb1EEENS5_ISC_EEE15max_load_factorB7v160006Ev, symObjAddr: 0xF8D4, symBinAddr: 0x100011298, symSize: 0x28 }
  - { offsetInCU: 0x2C9B3, offset: 0x2C9B3, size: 0x8, addend: 0x0, symName: __ZNSt3__112__hash_tableINS_17__hash_value_typeINS_12basic_stringIcNS_11char_traitsIcEENS_9allocatorIcEEEENS_10shared_ptrIN2sf7TextureEEEEENS_22__unordered_map_hasherIS7_SC_NS_4hashIS7_EENS_8equal_toIS7_EELb1EEENS_21__unordered_map_equalIS7_SC_SH_SF_Lb1EEENS5_ISC_EEE15__rehash_uniqueB7v160006Em, symObjAddr: 0xF8FC, symBinAddr: 0x1000112C0, symSize: 0x2C }
  - { offsetInCU: 0x2C9E8, offset: 0x2C9E8, size: 0x8, addend: 0x0, symName: __Z4ceilB7v160006f, symObjAddr: 0xF9A4, symBinAddr: 0x100011368, symSize: 0x18 }
  - { offsetInCU: 0x2CA17, offset: 0x2CA17, size: 0x8, addend: 0x0, symName: __ZNSt3__117__compressed_pairImNS_22__unordered_map_hasherINS_12basic_stringIcNS_11char_traitsIcEENS_9allocatorIcEEEENS_17__hash_value_typeIS7_NS_10shared_ptrIN2sf7TextureEEEEENS_4hashIS7_EENS_8equal_toIS7_EELb1EEEE5firstB7v160006Ev, symObjAddr: 0xF9BC, symBinAddr: 0x100011380, symSize: 0x24 }
  - { offsetInCU: 0x2CA3D, offset: 0x2CA3D, size: 0x8, addend: 0x0, symName: __ZNSt3__117__compressed_pairIfNS_21__unordered_map_equalINS_12basic_stringIcNS_11char_traitsIcEENS_9allocatorIcEEEENS_17__hash_value_typeIS7_NS_10shared_ptrIN2sf7TextureEEEEENS_8equal_toIS7_EENS_4hashIS7_EELb1EEEE5firstB7v160006Ev, symObjAddr: 0xF9E0, symBinAddr: 0x1000113A4, symSize: 0x24 }
  - { offsetInCU: 0x2CA63, offset: 0x2CA63, size: 0x8, addend: 0x0, symName: __ZNSt3__122__compressed_pair_elemIfLi0ELb0EE5__getB7v160006Ev, symObjAddr: 0xFA04, symBinAddr: 0x1000113C8, symSize: 0x14 }
  - { offsetInCU: 0x2CA89, offset: 0x2CA89, size: 0x8, addend: 0x0, symName: __ZNSt3__112__hash_tableINS_17__hash_value_typeINS_12basic_stringIcNS_11char_traitsIcEENS_9allocatorIcEEEENS_10shared_ptrIN2sf7TextureEEEEENS_22__unordered_map_hasherIS7_SC_NS_4hashIS7_EENS_8equal_toIS7_EELb1EEENS_21__unordered_map_equalIS7_SC_SH_SF_Lb1EEENS5_ISC_EEE8__rehashILb1EEEvm, symObjAddr: 0xFA18, symBinAddr: 0x1000113DC, symSize: 0x1A8 }
  - { offsetInCU: 0x2CAD9, offset: 0x2CAD9, size: 0x8, addend: 0x0, symName: __ZNSt3__112__hash_tableINS_17__hash_value_typeINS_12basic_stringIcNS_11char_traitsIcEENS_9allocatorIcEEEENS_10shared_ptrIN2sf7TextureEEEEENS_22__unordered_map_hasherIS7_SC_NS_4hashIS7_EENS_8equal_toIS7_EELb1EEENS_21__unordered_map_equalIS7_SC_SH_SF_Lb1EEENS5_ISC_EEE11__do_rehashILb1EEEvm, symObjAddr: 0xFBC0, symBinAddr: 0x100011584, symSize: 0x290 }
  - { offsetInCU: 0x2CBBC, offset: 0x2CBBC, size: 0x8, addend: 0x0, symName: __ZNSt3__110unique_ptrIA_PNS_16__hash_node_baseIPNS_11__hash_nodeINS_17__hash_value_typeINS_12basic_stringIcNS_11char_traitsIcEENS_9allocatorIcEEEENS_10shared_ptrIN2sf7TextureEEEEEPvEEEENS_25__bucket_list_deallocatorINS7_ISJ_EEEEE11get_deleterB7v160006Ev, symObjAddr: 0xFECC, symBinAddr: 0x100011890, symSize: 0x24 }
  - { offsetInCU: 0x2CBE2, offset: 0x2CBE2, size: 0x8, addend: 0x0, symName: __ZNSt3__110unique_ptrIA_PNS_16__hash_node_baseIPNS_11__hash_nodeINS_17__hash_value_typeINS_12basic_stringIcNS_11char_traitsIcEENS_9allocatorIcEEEENS_10shared_ptrIN2sf7TextureEEEEEPvEEEENS_25__bucket_list_deallocatorINS7_ISJ_EEEEE5resetB7v160006IPSJ_EENS_9enable_ifIXsr28_CheckArrayPointerConversionIT_EE5valueEvE4typeESS_, symObjAddr: 0xFEF0, symBinAddr: 0x1000118B4, symSize: 0x78 }
  - { offsetInCU: 0x2CC2F, offset: 0x2CC2F, size: 0x8, addend: 0x0, symName: __ZNSt3__116allocator_traitsINS_9allocatorIPNS_16__hash_node_baseIPNS_11__hash_nodeINS_17__hash_value_typeINS_12basic_stringIcNS_11char_traitsIcEENS1_IcEEEENS_10shared_ptrIN2sf7TextureEEEEEPvEEEEEEE8allocateB7v160006ERSK_m, symObjAddr: 0xFF68, symBinAddr: 0x10001192C, symSize: 0x2C }
  - { offsetInCU: 0x2CC62, offset: 0x2CC62, size: 0x8, addend: 0x0, symName: __ZNSt3__19allocatorIPNS_16__hash_node_baseIPNS_11__hash_nodeINS_17__hash_value_typeINS_12basic_stringIcNS_11char_traitsIcEENS0_IcEEEENS_10shared_ptrIN2sf7TextureEEEEEPvEEEEE8allocateB7v160006Em, symObjAddr: 0xFF94, symBinAddr: 0x100011958, symSize: 0x84 }
  - { offsetInCU: 0x2CCA1, offset: 0x2CCA1, size: 0x8, addend: 0x0, symName: __ZNSt3__116allocator_traitsINS_9allocatorIPNS_16__hash_node_baseIPNS_11__hash_nodeINS_17__hash_value_typeINS_12basic_stringIcNS_11char_traitsIcEENS1_IcEEEENS_10shared_ptrIN2sf7TextureEEEEEPvEEEEEEE8max_sizeB7v160006ISK_vEEmRKSK_, symObjAddr: 0x10018, symBinAddr: 0x1000119DC, symSize: 0x24 }
  - { offsetInCU: 0x2CCCF, offset: 0x2CCCF, size: 0x8, addend: 0x0, symName: __ZNKSt3__19allocatorIPNS_16__hash_node_baseIPNS_11__hash_nodeINS_17__hash_value_typeINS_12basic_stringIcNS_11char_traitsIcEENS0_IcEEEENS_10shared_ptrIN2sf7TextureEEEEEPvEEEEE8max_sizeB7v160006Ev, symObjAddr: 0x1003C, symBinAddr: 0x100011A00, symSize: 0x14 }
  - { offsetInCU: 0x2CCF5, offset: 0x2CCF5, size: 0x8, addend: 0x0, symName: __ZNSt3__14pairINS_15__hash_iteratorIPNS_11__hash_nodeINS_17__hash_value_typeINS_12basic_stringIcNS_11char_traitsIcEENS_9allocatorIcEEEENS_10shared_ptrIN2sf7TextureEEEEEPvEEEEbEC2B7v160006ERKSI_RKb, symObjAddr: 0x100C0, symBinAddr: 0x100011A84, symSize: 0x38 }
  - { offsetInCU: 0x2CD3B, offset: 0x2CD3B, size: 0x8, addend: 0x0, symName: __ZNSt3__14pairINS_19__hash_map_iteratorINS_15__hash_iteratorIPNS_11__hash_nodeINS_17__hash_value_typeINS_12basic_stringIcNS_11char_traitsIcEENS_9allocatorIcEEEENS_10shared_ptrIN2sf7TextureEEEEEPvEEEEEEbEC2B7v160006ISJ_bEERKNS0_IT_T0_EE, symObjAddr: 0x100F8, symBinAddr: 0x100011ABC, symSize: 0x50 }
  - { offsetInCU: 0x2CD85, offset: 0x2CD85, size: 0x8, addend: 0x0, symName: __ZNSt3__117__compressed_pairIPNS_11__hash_nodeINS_17__hash_value_typeINS_12basic_stringIcNS_11char_traitsIcEENS_9allocatorIcEEEENS_10shared_ptrIN2sf7TextureEEEEEPvEENS_26__hash_map_node_destructorINS6_ISF_EEEEE5firstB7v160006Ev, symObjAddr: 0x10148, symBinAddr: 0x100011B0C, symSize: 0x24 }
  - { offsetInCU: 0x2CDAB, offset: 0x2CDAB, size: 0x8, addend: 0x0, symName: __ZNSt3__122__compressed_pair_elemIPNS_11__hash_nodeINS_17__hash_value_typeINS_12basic_stringIcNS_11char_traitsIcEENS_9allocatorIcEEEENS_10shared_ptrIN2sf7TextureEEEEEPvEELi0ELb0EE5__getB7v160006Ev, symObjAddr: 0x1016C, symBinAddr: 0x100011B30, symSize: 0x14 }
  - { offsetInCU: 0x2CDD1, offset: 0x2CDD1, size: 0x8, addend: 0x0, symName: __ZNSt3__110unique_ptrINS_11__hash_nodeINS_17__hash_value_typeINS_12basic_stringIcNS_11char_traitsIcEENS_9allocatorIcEEEENS_10shared_ptrIN2sf7TextureEEEEEPvEENS_26__hash_map_node_destructorINS6_ISF_EEEEED2B7v160006Ev, symObjAddr: 0x10180, symBinAddr: 0x100011B44, symSize: 0x30 }
  - { offsetInCU: 0x2CDFB, offset: 0x2CDFB, size: 0x8, addend: 0x0, symName: __ZNSt3__110unique_ptrINS_11__hash_nodeINS_17__hash_value_typeINS_12basic_stringIcNS_11char_traitsIcEENS_9allocatorIcEEEENS_10shared_ptrIN2sf7TextureEEEEEPvEENS_26__hash_map_node_destructorINS6_ISF_EEEEE5resetB7v160006EPSF_, symObjAddr: 0x101B0, symBinAddr: 0x100011B74, symSize: 0x78 }
  - { offsetInCU: 0x2CE3F, offset: 0x2CE3F, size: 0x8, addend: 0x0, symName: __ZNSt3__126__hash_map_node_destructorINS_9allocatorINS_11__hash_nodeINS_17__hash_value_typeINS_12basic_stringIcNS_11char_traitsIcEENS1_IcEEEENS_10shared_ptrIN2sf7TextureEEEEEPvEEEEEclB7v160006EPSF_, symObjAddr: 0x10228, symBinAddr: 0x100011BEC, symSize: 0xE4 }
  - { offsetInCU: 0x2CE74, offset: 0x2CE74, size: 0x8, addend: 0x0, symName: __ZNSt3__116allocator_traitsINS_9allocatorINS_11__hash_nodeINS_17__hash_value_typeINS_12basic_stringIcNS_11char_traitsIcEENS1_IcEEEENS_10shared_ptrIN2sf7TextureEEEEEPvEEEEE7destroyB7v160006ISC_vvEEvRSG_PT_, symObjAddr: 0x1030C, symBinAddr: 0x100011CD0, symSize: 0x28 }
  - { offsetInCU: 0x2CEAF, offset: 0x2CEAF, size: 0x8, addend: 0x0, symName: __ZNSt3__116allocator_traitsINS_9allocatorINS_11__hash_nodeINS_17__hash_value_typeINS_12basic_stringIcNS_11char_traitsIcEENS1_IcEEEENS_10shared_ptrIN2sf7TextureEEEEEPvEEEEE7destroyB7v160006IKS8_vvEEvRSG_PT_, symObjAddr: 0x10334, symBinAddr: 0x100011CF8, symSize: 0x28 }
  - { offsetInCU: 0x2CEEA, offset: 0x2CEEA, size: 0x8, addend: 0x0, symName: __ZNSt3__110shared_ptrIN2sf7TextureEEC1B7v160006ERKS3_, symObjAddr: 0x1035C, symBinAddr: 0x100011D20, symSize: 0x34 }
  - { offsetInCU: 0x2CF23, offset: 0x2CF23, size: 0x8, addend: 0x0, symName: __ZNSt3__110shared_ptrIN2sf7TextureEE4swapB7v160006ERS3_, symObjAddr: 0x10390, symBinAddr: 0x100011D54, symSize: 0x64 }
  - { offsetInCU: 0x2CF58, offset: 0x2CF58, size: 0x8, addend: 0x0, symName: __ZNSt3__110shared_ptrIN2sf7TextureEEC2B7v160006ERKS3_, symObjAddr: 0x103F4, symBinAddr: 0x100011DB8, symSize: 0x70 }
  - { offsetInCU: 0x2CF91, offset: 0x2CF91, size: 0x8, addend: 0x0, symName: __ZNSt3__119__shared_weak_count12__add_sharedB7v160006Ev, symObjAddr: 0x10464, symBinAddr: 0x100011E28, symSize: 0x24 }
  - { offsetInCU: 0x2CFB7, offset: 0x2CFB7, size: 0x8, addend: 0x0, symName: __ZNSt3__114__shared_count12__add_sharedB7v160006Ev, symObjAddr: 0x10488, symBinAddr: 0x100011E4C, symSize: 0x28 }
  - { offsetInCU: 0x2CFDD, offset: 0x2CFDD, size: 0x8, addend: 0x0, symName: __ZNSt3__16vectorI4CardNS_9allocatorIS1_EEEC2B7v160006Ev, symObjAddr: 0x10558, symBinAddr: 0x100011F1C, symSize: 0x4C }
  - { offsetInCU: 0x2D007, offset: 0x2D007, size: 0x8, addend: 0x0, symName: __ZNSt3__117__compressed_pairIP4CardNS_9allocatorIS1_EEEC1B7v160006IDnNS_18__default_init_tagEEEOT_OT0_, symObjAddr: 0x105A4, symBinAddr: 0x100011F68, symSize: 0x3C }
  - { offsetInCU: 0x2D05F, offset: 0x2D05F, size: 0x8, addend: 0x0, symName: __ZNSt3__117__compressed_pairIP4CardNS_9allocatorIS1_EEEC2B7v160006IDnNS_18__default_init_tagEEEOT_OT0_, symObjAddr: 0x105F0, symBinAddr: 0x100011FB4, symSize: 0x40 }
  - { offsetInCU: 0x2D0B7, offset: 0x2D0B7, size: 0x8, addend: 0x0, symName: __ZNSt3__122__compressed_pair_elemIP4CardLi0ELb0EEC2B7v160006IDnvEEOT_, symObjAddr: 0x10630, symBinAddr: 0x100011FF4, symSize: 0x1C }
  - { offsetInCU: 0x2D0F9, offset: 0x2D0F9, size: 0x8, addend: 0x0, symName: __ZNSt3__122__compressed_pair_elemINS_9allocatorI4CardEELi1ELb1EEC2B7v160006ENS_18__default_init_tagE, symObjAddr: 0x1064C, symBinAddr: 0x100012010, symSize: 0x2C }
  - { offsetInCU: 0x2D12E, offset: 0x2D12E, size: 0x8, addend: 0x0, symName: __ZNSt3__19allocatorI4CardEC2B7v160006Ev, symObjAddr: 0x10678, symBinAddr: 0x10001203C, symSize: 0x2C }
  - { offsetInCU: 0x2D158, offset: 0x2D158, size: 0x8, addend: 0x0, symName: __ZNSt3__116__non_trivial_ifILb1ENS_9allocatorI4CardEEEC2B7v160006Ev, symObjAddr: 0x106A4, symBinAddr: 0x100012068, symSize: 0x14 }
  - { offsetInCU: 0x2D182, offset: 0x2D182, size: 0x8, addend: 0x0, symName: __ZNSt3__16vectorI4CardNS_9allocatorIS1_EEED2B7v160006Ev, symObjAddr: 0x106B8, symBinAddr: 0x10001207C, symSize: 0x3C }
  - { offsetInCU: 0x2D1AC, offset: 0x2D1AC, size: 0x8, addend: 0x0, symName: __ZNSt3__16vectorI4CardNS_9allocatorIS1_EEE16__destroy_vectorC1ERS4_, symObjAddr: 0x106F4, symBinAddr: 0x1000120B8, symSize: 0x34 }
  - { offsetInCU: 0x2D1E5, offset: 0x2D1E5, size: 0x8, addend: 0x0, symName: __ZNSt3__16vectorI4CardNS_9allocatorIS1_EEE16__destroy_vectorclB7v160006Ev, symObjAddr: 0x10728, symBinAddr: 0x1000120EC, symSize: 0x9C }
  - { offsetInCU: 0x2D20B, offset: 0x2D20B, size: 0x8, addend: 0x0, symName: __ZNSt3__16vectorI4CardNS_9allocatorIS1_EEE16__destroy_vectorC2ERS4_, symObjAddr: 0x107C4, symBinAddr: 0x100012188, symSize: 0x20 }
  - { offsetInCU: 0x2D244, offset: 0x2D244, size: 0x8, addend: 0x0, symName: __ZNKSt3__16vectorI4CardNS_9allocatorIS1_EEE17__annotate_deleteB7v160006Ev, symObjAddr: 0x107E4, symBinAddr: 0x1000121A8, symSize: 0xD4 }
  - { offsetInCU: 0x2D26A, offset: 0x2D26A, size: 0x8, addend: 0x0, symName: __ZNSt3__16vectorI4CardNS_9allocatorIS1_EEE7__clearB7v160006Ev, symObjAddr: 0x108C8, symBinAddr: 0x10001228C, symSize: 0x28 }
  - { offsetInCU: 0x2D290, offset: 0x2D290, size: 0x8, addend: 0x0, symName: __ZNSt3__116allocator_traitsINS_9allocatorI4CardEEE10deallocateB7v160006ERS3_PS2_m, symObjAddr: 0x108F0, symBinAddr: 0x1000122B4, symSize: 0x34 }
  - { offsetInCU: 0x2D2D2, offset: 0x2D2D2, size: 0x8, addend: 0x0, symName: __ZNSt3__16vectorI4CardNS_9allocatorIS1_EEE7__allocB7v160006Ev, symObjAddr: 0x10924, symBinAddr: 0x1000122E8, symSize: 0x28 }
  - { offsetInCU: 0x2D2F8, offset: 0x2D2F8, size: 0x8, addend: 0x0, symName: __ZNKSt3__16vectorI4CardNS_9allocatorIS1_EEE8capacityB7v160006Ev, symObjAddr: 0x1094C, symBinAddr: 0x100012310, symSize: 0x40 }
  - { offsetInCU: 0x2D31E, offset: 0x2D31E, size: 0x8, addend: 0x0, symName: __ZNKSt3__16vectorI4CardNS_9allocatorIS1_EEE31__annotate_contiguous_containerB7v160006EPKvS6_S6_S6_, symObjAddr: 0x1098C, symBinAddr: 0x100012350, symSize: 0x20 }
  - { offsetInCU: 0x2D374, offset: 0x2D374, size: 0x8, addend: 0x0, symName: __ZNKSt3__16vectorI4CardNS_9allocatorIS1_EEE4dataB7v160006Ev, symObjAddr: 0x109AC, symBinAddr: 0x100012370, symSize: 0x28 }
  - { offsetInCU: 0x2D39A, offset: 0x2D39A, size: 0x8, addend: 0x0, symName: __ZNSt3__16vectorI4CardNS_9allocatorIS1_EEE22__base_destruct_at_endB7v160006EPS1_, symObjAddr: 0x109E8, symBinAddr: 0x1000123AC, symSize: 0xA0 }
  - { offsetInCU: 0x2D3DE, offset: 0x2D3DE, size: 0x8, addend: 0x0, symName: __ZNSt3__116allocator_traitsINS_9allocatorI4CardEEE7destroyB7v160006IS2_vEEvRS3_PT_, symObjAddr: 0x10A88, symBinAddr: 0x10001244C, symSize: 0x2C }
  - { offsetInCU: 0x2D41B, offset: 0x2D41B, size: 0x8, addend: 0x0, symName: __ZNSt3__19allocatorI4CardE7destroyB7v160006EPS1_, symObjAddr: 0x10AB4, symBinAddr: 0x100012478, symSize: 0x28 }
  - { offsetInCU: 0x2D44F, offset: 0x2D44F, size: 0x8, addend: 0x0, symName: __ZN4CardD1Ev, symObjAddr: 0x10ADC, symBinAddr: 0x1000124A0, symSize: 0x2C }
  - { offsetInCU: 0x2D47B, offset: 0x2D47B, size: 0x8, addend: 0x0, symName: __ZN4CardD2Ev, symObjAddr: 0x10B08, symBinAddr: 0x1000124CC, symSize: 0xCC }
  - { offsetInCU: 0x2D4A7, offset: 0x2D4A7, size: 0x8, addend: 0x0, symName: __ZNSt3__19allocatorI4CardE10deallocateB7v160006EPS1_m, symObjAddr: 0x10BD4, symBinAddr: 0x100012598, symSize: 0x74 }
  - { offsetInCU: 0x2D4E9, offset: 0x2D4E9, size: 0x8, addend: 0x0, symName: __ZNSt3__117__compressed_pairIP4CardNS_9allocatorIS1_EEE6secondB7v160006Ev, symObjAddr: 0x10C48, symBinAddr: 0x10001260C, symSize: 0x24 }
  - { offsetInCU: 0x2D50F, offset: 0x2D50F, size: 0x8, addend: 0x0, symName: __ZNSt3__122__compressed_pair_elemINS_9allocatorI4CardEELi1ELb1EE5__getB7v160006Ev, symObjAddr: 0x10C6C, symBinAddr: 0x100012630, symSize: 0x14 }
  - { offsetInCU: 0x2D535, offset: 0x2D535, size: 0x8, addend: 0x0, symName: __ZNKSt3__16vectorI4CardNS_9allocatorIS1_EEE9__end_capB7v160006Ev, symObjAddr: 0x10C80, symBinAddr: 0x100012644, symSize: 0x28 }
  - { offsetInCU: 0x2D55B, offset: 0x2D55B, size: 0x8, addend: 0x0, symName: __ZNKSt3__117__compressed_pairIP4CardNS_9allocatorIS1_EEE5firstB7v160006Ev, symObjAddr: 0x10CA8, symBinAddr: 0x10001266C, symSize: 0x24 }
  - { offsetInCU: 0x2D581, offset: 0x2D581, size: 0x8, addend: 0x0, symName: __ZNKSt3__122__compressed_pair_elemIP4CardLi0ELb0EE5__getB7v160006Ev, symObjAddr: 0x10CCC, symBinAddr: 0x100012690, symSize: 0x14 }
  - { offsetInCU: 0x2D5A7, offset: 0x2D5A7, size: 0x8, addend: 0x0, symName: __ZNKSt3__112__hash_tableINS_17__hash_value_typeINS_12basic_stringIcNS_11char_traitsIcEENS_9allocatorIcEEEENS_10shared_ptrIN2sf7TextureEEEEENS_22__unordered_map_hasherIS7_SC_NS_4hashIS7_EENS_8equal_toIS7_EELb1EEENS_21__unordered_map_equalIS7_SC_SH_SF_Lb1EEENS5_ISC_EEE4findIS7_EENS_21__hash_const_iteratorIPNS_11__hash_nodeISC_PvEEEERKT_, symObjAddr: 0x10CE0, symBinAddr: 0x1000126A4, symSize: 0x1BC }
  - { offsetInCU: 0x2D631, offset: 0x2D631, size: 0x8, addend: 0x0, symName: __ZNSt3__125__hash_map_const_iteratorINS_21__hash_const_iteratorIPNS_11__hash_nodeINS_17__hash_value_typeINS_12basic_stringIcNS_11char_traitsIcEENS_9allocatorIcEEEENS_10shared_ptrIN2sf7TextureEEEEEPvEEEEEC1B7v160006ESI_, symObjAddr: 0x10E9C, symBinAddr: 0x100012860, symSize: 0x34 }
  - { offsetInCU: 0x2D66A, offset: 0x2D66A, size: 0x8, addend: 0x0, symName: __ZNKSt3__112__hash_tableINS_17__hash_value_typeINS_12basic_stringIcNS_11char_traitsIcEENS_9allocatorIcEEEENS_10shared_ptrIN2sf7TextureEEEEENS_22__unordered_map_hasherIS7_SC_NS_4hashIS7_EENS_8equal_toIS7_EELb1EEENS_21__unordered_map_equalIS7_SC_SH_SF_Lb1EEENS5_ISC_EEE13hash_functionB7v160006Ev, symObjAddr: 0x10ED0, symBinAddr: 0x100012894, symSize: 0x28 }
  - { offsetInCU: 0x2D690, offset: 0x2D690, size: 0x8, addend: 0x0, symName: __ZNKSt3__112__hash_tableINS_17__hash_value_typeINS_12basic_stringIcNS_11char_traitsIcEENS_9allocatorIcEEEENS_10shared_ptrIN2sf7TextureEEEEENS_22__unordered_map_hasherIS7_SC_NS_4hashIS7_EENS_8equal_toIS7_EELb1EEENS_21__unordered_map_equalIS7_SC_SH_SF_Lb1EEENS5_ISC_EEE6key_eqB7v160006Ev, symObjAddr: 0x10EF8, symBinAddr: 0x1000128BC, symSize: 0x28 }
  - { offsetInCU: 0x2D6B6, offset: 0x2D6B6, size: 0x8, addend: 0x0, symName: __ZNSt3__121__hash_const_iteratorIPNS_11__hash_nodeINS_17__hash_value_typeINS_12basic_stringIcNS_11char_traitsIcEENS_9allocatorIcEEEENS_10shared_ptrIN2sf7TextureEEEEEPvEEEC1B7v160006EPNS_16__hash_node_baseISG_EEPKv, symObjAddr: 0x10F20, symBinAddr: 0x1000128E4, symSize: 0x3C }
  - { offsetInCU: 0x2D6FE, offset: 0x2D6FE, size: 0x8, addend: 0x0, symName: __ZNKSt3__112__hash_tableINS_17__hash_value_typeINS_12basic_stringIcNS_11char_traitsIcEENS_9allocatorIcEEEENS_10shared_ptrIN2sf7TextureEEEEENS_22__unordered_map_hasherIS7_SC_NS_4hashIS7_EENS_8equal_toIS7_EELb1EEENS_21__unordered_map_equalIS7_SC_SH_SF_Lb1EEENS5_ISC_EEE3endEv, symObjAddr: 0x10F5C, symBinAddr: 0x100012920, symSize: 0x30 }
  - { offsetInCU: 0x2D726, offset: 0x2D726, size: 0x8, addend: 0x0, symName: __ZNKSt3__117__compressed_pairImNS_22__unordered_map_hasherINS_12basic_stringIcNS_11char_traitsIcEENS_9allocatorIcEEEENS_17__hash_value_typeIS7_NS_10shared_ptrIN2sf7TextureEEEEENS_4hashIS7_EENS_8equal_toIS7_EELb1EEEE6secondB7v160006Ev, symObjAddr: 0x10F8C, symBinAddr: 0x100012950, symSize: 0x24 }
  - { offsetInCU: 0x2D74C, offset: 0x2D74C, size: 0x8, addend: 0x0, symName: __ZNKSt3__122__compressed_pair_elemINS_22__unordered_map_hasherINS_12basic_stringIcNS_11char_traitsIcEENS_9allocatorIcEEEENS_17__hash_value_typeIS7_NS_10shared_ptrIN2sf7TextureEEEEENS_4hashIS7_EENS_8equal_toIS7_EELb1EEELi1ELb1EE5__getB7v160006Ev, symObjAddr: 0x10FB0, symBinAddr: 0x100012974, symSize: 0x14 }
  - { offsetInCU: 0x2D772, offset: 0x2D772, size: 0x8, addend: 0x0, symName: __ZNKSt3__117__compressed_pairIfNS_21__unordered_map_equalINS_12basic_stringIcNS_11char_traitsIcEENS_9allocatorIcEEEENS_17__hash_value_typeIS7_NS_10shared_ptrIN2sf7TextureEEEEENS_8equal_toIS7_EENS_4hashIS7_EELb1EEEE6secondB7v160006Ev, symObjAddr: 0x10FC4, symBinAddr: 0x100012988, symSize: 0x24 }
  - { offsetInCU: 0x2D798, offset: 0x2D798, size: 0x8, addend: 0x0, symName: __ZNKSt3__122__compressed_pair_elemINS_21__unordered_map_equalINS_12basic_stringIcNS_11char_traitsIcEENS_9allocatorIcEEEENS_17__hash_value_typeIS7_NS_10shared_ptrIN2sf7TextureEEEEENS_8equal_toIS7_EENS_4hashIS7_EELb1EEELi1ELb1EE5__getB7v160006Ev, symObjAddr: 0x10FE8, symBinAddr: 0x1000129AC, symSize: 0x14 }
  - { offsetInCU: 0x2D7BE, offset: 0x2D7BE, size: 0x8, addend: 0x0, symName: __ZNSt3__121__hash_const_iteratorIPNS_11__hash_nodeINS_17__hash_value_typeINS_12basic_stringIcNS_11char_traitsIcEENS_9allocatorIcEEEENS_10shared_ptrIN2sf7TextureEEEEEPvEEEC2B7v160006EPNS_16__hash_node_baseISG_EEPKv, symObjAddr: 0x10FFC, symBinAddr: 0x1000129C0, symSize: 0x24 }
  - { offsetInCU: 0x2D806, offset: 0x2D806, size: 0x8, addend: 0x0, symName: __ZNSt3__125__hash_map_const_iteratorINS_21__hash_const_iteratorIPNS_11__hash_nodeINS_17__hash_value_typeINS_12basic_stringIcNS_11char_traitsIcEENS_9allocatorIcEEEENS_10shared_ptrIN2sf7TextureEEEEEPvEEEEEC2B7v160006ESI_, symObjAddr: 0x11020, symBinAddr: 0x1000129E4, symSize: 0x20 }
  - { offsetInCU: 0x2D83F, offset: 0x2D83F, size: 0x8, addend: 0x0, symName: __ZNKSt3__125__hash_map_const_iteratorINS_21__hash_const_iteratorIPNS_11__hash_nodeINS_17__hash_value_typeINS_12basic_stringIcNS_11char_traitsIcEENS_9allocatorIcEEEENS_10shared_ptrIN2sf7TextureEEEEEPvEEEEEptB7v160006Ev, symObjAddr: 0x11138, symBinAddr: 0x100012AFC, symSize: 0x2C }
  - { offsetInCU: 0x2D865, offset: 0x2D865, size: 0x8, addend: 0x0, symName: __ZNSt12out_of_rangeC1B7v160006EPKc, symObjAddr: 0x11164, symBinAddr: 0x100012B28, symSize: 0x34 }
  - { offsetInCU: 0x2D89D, offset: 0x2D89D, size: 0x8, addend: 0x0, symName: __ZNSt12out_of_rangeC2B7v160006EPKc, symObjAddr: 0x11198, symBinAddr: 0x100012B5C, symSize: 0x4C }
  - { offsetInCU: 0x2D8D5, offset: 0x2D8D5, size: 0x8, addend: 0x0, symName: __ZNSt3__114pointer_traitsIPKNS_4pairIKNS_12basic_stringIcNS_11char_traitsIcEENS_9allocatorIcEEEENS_10shared_ptrIN2sf7TextureEEEEEE10pointer_toB7v160006ERSE_, symObjAddr: 0x111E4, symBinAddr: 0x100012BA8, symSize: 0x14 }
  - { offsetInCU: 0x2D8F8, offset: 0x2D8F8, size: 0x8, addend: 0x0, symName: __ZNKSt3__121__hash_const_iteratorIPNS_11__hash_nodeINS_17__hash_value_typeINS_12basic_stringIcNS_11char_traitsIcEENS_9allocatorIcEEEENS_10shared_ptrIN2sf7TextureEEEEEPvEEEptB7v160006Ev, symObjAddr: 0x111F8, symBinAddr: 0x100012BBC, symSize: 0x30 }
  - { offsetInCU: 0x2D91E, offset: 0x2D91E, size: 0x8, addend: 0x0, symName: __ZNSt3__114pointer_traitsIPKNS_17__hash_value_typeINS_12basic_stringIcNS_11char_traitsIcEENS_9allocatorIcEEEENS_10shared_ptrIN2sf7TextureEEEEEE10pointer_toB7v160006ERSD_, symObjAddr: 0x11228, symBinAddr: 0x100012BEC, symSize: 0x14 }
  - { offsetInCU: 0x2D941, offset: 0x2D941, size: 0x8, addend: 0x0, symName: __ZNSt3__16vectorI4CardNS_9allocatorIS1_EEE9__end_capB7v160006Ev, symObjAddr: 0x1123C, symBinAddr: 0x100012C00, symSize: 0x28 }
  - { offsetInCU: 0x2D967, offset: 0x2D967, size: 0x8, addend: 0x0, symName: __ZNSt3__16vectorI4CardNS_9allocatorIS1_EEE22__construct_one_at_endB7v160006IJRNS_12basic_stringIcNS_11char_traitsIcEENS2_IcEEEERKSA_RiRKNS_10shared_ptrIN2sf7TextureEEEEEEvDpOT_, symObjAddr: 0x11264, symBinAddr: 0x100012C28, symSize: 0xB0 }
  - { offsetInCU: 0x2D9F2, offset: 0x2D9F2, size: 0x8, addend: 0x0, symName: __ZNSt3__16vectorI4CardNS_9allocatorIS1_EEE24__emplace_back_slow_pathIJRNS_12basic_stringIcNS_11char_traitsIcEENS2_IcEEEERKSA_RiRKNS_10shared_ptrIN2sf7TextureEEEEEEvDpOT_, symObjAddr: 0x11314, symBinAddr: 0x100012CD8, symSize: 0xF8 }
  - { offsetInCU: 0x2DA8E, offset: 0x2DA8E, size: 0x8, addend: 0x0, symName: __ZNSt3__117__compressed_pairIP4CardNS_9allocatorIS1_EEE5firstB7v160006Ev, symObjAddr: 0x1140C, symBinAddr: 0x100012DD0, symSize: 0x24 }
  - { offsetInCU: 0x2DAB4, offset: 0x2DAB4, size: 0x8, addend: 0x0, symName: __ZNSt3__122__compressed_pair_elemIP4CardLi0ELb0EE5__getB7v160006Ev, symObjAddr: 0x11430, symBinAddr: 0x100012DF4, symSize: 0x14 }
  - { offsetInCU: 0x2DAF6, offset: 0x2DAF6, size: 0x8, addend: 0x0, symName: __ZNSt3__16vectorI4CardNS_9allocatorIS1_EEE21_ConstructTransactionC1B7v160006ERS4_m, symObjAddr: 0x11444, symBinAddr: 0x100012E08, symSize: 0x3C }
  - { offsetInCU: 0x2DB3E, offset: 0x2DB3E, size: 0x8, addend: 0x0, symName: __ZNSt3__116allocator_traitsINS_9allocatorI4CardEEE9constructB7v160006IS2_JRNS_12basic_stringIcNS_11char_traitsIcEENS1_IcEEEERKSA_RiRKNS_10shared_ptrIN2sf7TextureEEEEvEEvRS3_PT_DpOT0_, symObjAddr: 0x11480, symBinAddr: 0x100012E44, symSize: 0x4C }
  - { offsetInCU: 0x2DBD1, offset: 0x2DBD1, size: 0x8, addend: 0x0, symName: __ZNSt3__16vectorI4CardNS_9allocatorIS1_EEE21_ConstructTransactionD1B7v160006Ev, symObjAddr: 0x114CC, symBinAddr: 0x100012E90, symSize: 0x2C }
  - { offsetInCU: 0x2DBFB, offset: 0x2DBFB, size: 0x8, addend: 0x0, symName: __ZNSt3__16vectorI4CardNS_9allocatorIS1_EEE21_ConstructTransactionC2B7v160006ERS4_m, symObjAddr: 0x114F8, symBinAddr: 0x100012EBC, symSize: 0x4C }
  - { offsetInCU: 0x2DC43, offset: 0x2DC43, size: 0x8, addend: 0x0, symName: __ZNSt3__19allocatorI4CardE9constructB7v160006IS1_JRNS_12basic_stringIcNS_11char_traitsIcEENS0_IcEEEERKS8_RiRKNS_10shared_ptrIN2sf7TextureEEEEEEvPT_DpOT0_, symObjAddr: 0x11544, symBinAddr: 0x100012F08, symSize: 0xB0 }
  - { offsetInCU: 0x2DCD2, offset: 0x2DCD2, size: 0x8, addend: 0x0, symName: __ZN4CardC1ERKNSt3__112basic_stringIcNS0_11char_traitsIcEENS0_9allocatorIcEEEES8_iNS0_10shared_ptrIN2sf7TextureEEE, symObjAddr: 0x115F4, symBinAddr: 0x100012FB8, symSize: 0x4C }
  - { offsetInCU: 0x2DD35, offset: 0x2DD35, size: 0x8, addend: 0x0, symName: __ZN4CardC2ERKNSt3__112basic_stringIcNS0_11char_traitsIcEENS0_9allocatorIcEEEES8_iNS0_10shared_ptrIN2sf7TextureEEE, symObjAddr: 0x11640, symBinAddr: 0x100013004, symSize: 0x16C }
  - { offsetInCU: 0x2DD98, offset: 0x2DD98, size: 0x8, addend: 0x0, symName: __ZNKSt3__110shared_ptrIN2sf7TextureEEcvbB7v160006Ev, symObjAddr: 0x117AC, symBinAddr: 0x100013170, symSize: 0x30 }
  - { offsetInCU: 0x2DDBE, offset: 0x2DDBE, size: 0x8, addend: 0x0, symName: __ZNKSt3__110shared_ptrIN2sf7TextureEEdeB7v160006Ev, symObjAddr: 0x117DC, symBinAddr: 0x1000131A0, symSize: 0x18 }
  - { offsetInCU: 0x2DDE4, offset: 0x2DDE4, size: 0x8, addend: 0x0, symName: __ZNKSt3__110shared_ptrIN2sf7TextureEE3getB7v160006Ev, symObjAddr: 0x117F4, symBinAddr: 0x1000131B8, symSize: 0x18 }
  - { offsetInCU: 0x2DE0A, offset: 0x2DE0A, size: 0x8, addend: 0x0, symName: __ZNSt3__16vectorI4CardNS_9allocatorIS1_EEE21_ConstructTransactionD2B7v160006Ev, symObjAddr: 0x1180C, symBinAddr: 0x1000131D0, symSize: 0x20 }
  - { offsetInCU: 0x2DE34, offset: 0x2DE34, size: 0x8, addend: 0x0, symName: __ZNKSt3__16vectorI4CardNS_9allocatorIS1_EEE11__recommendB7v160006Em, symObjAddr: 0x1182C, symBinAddr: 0x1000131F0, symSize: 0xB4 }
  - { offsetInCU: 0x2DE89, offset: 0x2DE89, size: 0x8, addend: 0x0, symName: __ZNSt3__114__split_bufferI4CardRNS_9allocatorIS1_EEEC1EmmS4_, symObjAddr: 0x118E0, symBinAddr: 0x1000132A4, symSize: 0x44 }
  - { offsetInCU: 0x2DEDF, offset: 0x2DEDF, size: 0x8, addend: 0x0, symName: __ZNSt3__114__split_bufferI4CardRNS_9allocatorIS1_EEED1Ev, symObjAddr: 0x11A3C, symBinAddr: 0x100013400, symSize: 0x2C }
  - { offsetInCU: 0x2DF0B, offset: 0x2DF0B, size: 0x8, addend: 0x0, symName: __ZNKSt3__16vectorI4CardNS_9allocatorIS1_EEE8max_sizeEv, symObjAddr: 0x11A68, symBinAddr: 0x10001342C, symSize: 0x74 }
  - { offsetInCU: 0x2DF33, offset: 0x2DF33, size: 0x8, addend: 0x0, symName: __ZNKSt3__16vectorI4CardNS_9allocatorIS1_EEE20__throw_length_errorB7v160006Ev, symObjAddr: 0x11ADC, symBinAddr: 0x1000134A0, symSize: 0x1C }
  - { offsetInCU: 0x2DF64, offset: 0x2DF64, size: 0x8, addend: 0x0, symName: __ZNSt3__116allocator_traitsINS_9allocatorI4CardEEE8max_sizeB7v160006IS3_vEEmRKS3_, symObjAddr: 0x11AF8, symBinAddr: 0x1000134BC, symSize: 0x24 }
  - { offsetInCU: 0x2DF92, offset: 0x2DF92, size: 0x8, addend: 0x0, symName: __ZNKSt3__16vectorI4CardNS_9allocatorIS1_EEE7__allocB7v160006Ev, symObjAddr: 0x11B1C, symBinAddr: 0x1000134E0, symSize: 0x28 }
  - { offsetInCU: 0x2DFB8, offset: 0x2DFB8, size: 0x8, addend: 0x0, symName: __ZNKSt3__19allocatorI4CardE8max_sizeB7v160006Ev, symObjAddr: 0x11B44, symBinAddr: 0x100013508, symSize: 0x20 }
  - { offsetInCU: 0x2DFDE, offset: 0x2DFDE, size: 0x8, addend: 0x0, symName: __ZNKSt3__117__compressed_pairIP4CardNS_9allocatorIS1_EEE6secondB7v160006Ev, symObjAddr: 0x11B64, symBinAddr: 0x100013528, symSize: 0x24 }
  - { offsetInCU: 0x2E004, offset: 0x2E004, size: 0x8, addend: 0x0, symName: __ZNKSt3__122__compressed_pair_elemINS_9allocatorI4CardEELi1ELb1EE5__getB7v160006Ev, symObjAddr: 0x11B88, symBinAddr: 0x10001354C, symSize: 0x14 }
  - { offsetInCU: 0x2E02A, offset: 0x2E02A, size: 0x8, addend: 0x0, symName: __ZNSt3__114__split_bufferI4CardRNS_9allocatorIS1_EEEC2EmmS4_, symObjAddr: 0x11B9C, symBinAddr: 0x100013560, symSize: 0xE0 }
  - { offsetInCU: 0x2E09D, offset: 0x2E09D, size: 0x8, addend: 0x0, symName: __ZNSt3__117__compressed_pairIP4CardRNS_9allocatorIS1_EEEC1B7v160006IDnS5_EEOT_OT0_, symObjAddr: 0x11C7C, symBinAddr: 0x100013640, symSize: 0x3C }
  - { offsetInCU: 0x2E0F5, offset: 0x2E0F5, size: 0x8, addend: 0x0, symName: __ZNSt3__114__split_bufferI4CardRNS_9allocatorIS1_EEE7__allocB7v160006Ev, symObjAddr: 0x11CF8, symBinAddr: 0x1000136BC, symSize: 0x28 }
  - { offsetInCU: 0x2E11B, offset: 0x2E11B, size: 0x8, addend: 0x0, symName: __ZNSt3__114__split_bufferI4CardRNS_9allocatorIS1_EEE9__end_capB7v160006Ev, symObjAddr: 0x11D20, symBinAddr: 0x1000136E4, symSize: 0x28 }
  - { offsetInCU: 0x2E141, offset: 0x2E141, size: 0x8, addend: 0x0, symName: __ZNSt3__117__compressed_pairIP4CardRNS_9allocatorIS1_EEEC2B7v160006IDnS5_EEOT_OT0_, symObjAddr: 0x11D48, symBinAddr: 0x10001370C, symSize: 0x48 }
  - { offsetInCU: 0x2E199, offset: 0x2E199, size: 0x8, addend: 0x0, symName: __ZNSt3__122__compressed_pair_elemIRNS_9allocatorI4CardEELi1ELb0EEC2B7v160006IS4_vEEOT_, symObjAddr: 0x11D90, symBinAddr: 0x100013754, symSize: 0x20 }
  - { offsetInCU: 0x2E1DB, offset: 0x2E1DB, size: 0x8, addend: 0x0, symName: __ZNSt3__19allocatorI4CardE8allocateB7v160006Em, symObjAddr: 0x11DB0, symBinAddr: 0x100013774, symSize: 0x8C }
  - { offsetInCU: 0x2E20F, offset: 0x2E20F, size: 0x8, addend: 0x0, symName: __ZNSt3__117__compressed_pairIP4CardRNS_9allocatorIS1_EEE6secondB7v160006Ev, symObjAddr: 0x11E3C, symBinAddr: 0x100013800, symSize: 0x28 }
  - { offsetInCU: 0x2E235, offset: 0x2E235, size: 0x8, addend: 0x0, symName: __ZNSt3__122__compressed_pair_elemIRNS_9allocatorI4CardEELi1ELb0EE5__getB7v160006Ev, symObjAddr: 0x11E64, symBinAddr: 0x100013828, symSize: 0x18 }
  - { offsetInCU: 0x2E25B, offset: 0x2E25B, size: 0x8, addend: 0x0, symName: __ZNSt3__117__compressed_pairIP4CardRNS_9allocatorIS1_EEE5firstB7v160006Ev, symObjAddr: 0x11E7C, symBinAddr: 0x100013840, symSize: 0x24 }
  - { offsetInCU: 0x2E281, offset: 0x2E281, size: 0x8, addend: 0x0, symName: __ZNSt3__116reverse_iteratorIP4CardEC1B7v160006ES2_, symObjAddr: 0x11FD4, symBinAddr: 0x100013998, symSize: 0x34 }
  - { offsetInCU: 0x2E2B9, offset: 0x2E2B9, size: 0x8, addend: 0x0, symName: __ZNKSt3__116reverse_iteratorIP4CardE4baseB7v160006Ev, symObjAddr: 0x12008, symBinAddr: 0x1000139CC, symSize: 0x18 }
  - { offsetInCU: 0x2E2DF, offset: 0x2E2DF, size: 0x8, addend: 0x0, symName: __ZNKSt3__16vectorI4CardNS_9allocatorIS1_EEE14__annotate_newB7v160006Em, symObjAddr: 0x1205C, symBinAddr: 0x100013A20, symSize: 0xC8 }
  - { offsetInCU: 0x2E314, offset: 0x2E314, size: 0x8, addend: 0x0, symName: __ZNSt3__129_AllocatorDestroyRangeReverseINS_9allocatorI4CardEENS_16reverse_iteratorIPS2_EEEC1B7v160006ERS3_RS6_S9_, symObjAddr: 0x12180, symBinAddr: 0x100013B44, symSize: 0x44 }
  - { offsetInCU: 0x2E36B, offset: 0x2E36B, size: 0x8, addend: 0x0, symName: __ZNSt3__116allocator_traitsINS_9allocatorI4CardEEE9constructB7v160006IS2_JRKS2_EvEEvRS3_PT_DpOT0_, symObjAddr: 0x1220C, symBinAddr: 0x100013BD0, symSize: 0x34 }
  - { offsetInCU: 0x2E3C2, offset: 0x2E3C2, size: 0x8, addend: 0x0, symName: __ZNKSt3__116reverse_iteratorIP4CardEdeB7v160006Ev, symObjAddr: 0x12264, symBinAddr: 0x100013C28, symSize: 0x28 }
  - { offsetInCU: 0x2E3F6, offset: 0x2E3F6, size: 0x8, addend: 0x0, symName: __ZNSt3__116reverse_iteratorIP4CardEppB7v160006Ev, symObjAddr: 0x1228C, symBinAddr: 0x100013C50, symSize: 0x20 }
  - { offsetInCU: 0x2E41C, offset: 0x2E41C, size: 0x8, addend: 0x0, symName: __ZNSt3__128__exception_guard_exceptionsINS_29_AllocatorDestroyRangeReverseINS_9allocatorI4CardEENS_16reverse_iteratorIPS3_EEEEE10__completeB7v160006Ev, symObjAddr: 0x122AC, symBinAddr: 0x100013C70, symSize: 0x1C }
  - { offsetInCU: 0x2E442, offset: 0x2E442, size: 0x8, addend: 0x0, symName: __ZNSt3__128__exception_guard_exceptionsINS_29_AllocatorDestroyRangeReverseINS_9allocatorI4CardEENS_16reverse_iteratorIPS3_EEEEED1B7v160006Ev, symObjAddr: 0x122C8, symBinAddr: 0x100013C8C, symSize: 0x2C }
  - { offsetInCU: 0x2E46C, offset: 0x2E46C, size: 0x8, addend: 0x0, symName: __ZNSt3__128__exception_guard_exceptionsINS_29_AllocatorDestroyRangeReverseINS_9allocatorI4CardEENS_16reverse_iteratorIPS3_EEEEEC1B7v160006ES8_, symObjAddr: 0x122F4, symBinAddr: 0x100013CB8, symSize: 0x34 }
  - { offsetInCU: 0x2E4A5, offset: 0x2E4A5, size: 0x8, addend: 0x0, symName: __ZNSt3__128__exception_guard_exceptionsINS_29_AllocatorDestroyRangeReverseINS_9allocatorI4CardEENS_16reverse_iteratorIPS3_EEEEEC2B7v160006ES8_, symObjAddr: 0x12328, symBinAddr: 0x100013CEC, symSize: 0x30 }
  - { offsetInCU: 0x2E4DE, offset: 0x2E4DE, size: 0x8, addend: 0x0, symName: __ZNSt3__129_AllocatorDestroyRangeReverseINS_9allocatorI4CardEENS_16reverse_iteratorIPS2_EEEC2B7v160006ERS3_RS6_S9_, symObjAddr: 0x12358, symBinAddr: 0x100013D1C, symSize: 0x38 }
  - { offsetInCU: 0x2E535, offset: 0x2E535, size: 0x8, addend: 0x0, symName: __ZNSt3__19allocatorI4CardE9constructB7v160006IS1_JRKS1_EEEvPT_DpOT0_, symObjAddr: 0x12390, symBinAddr: 0x100013D54, symSize: 0x30 }
  - { offsetInCU: 0x2E58B, offset: 0x2E58B, size: 0x8, addend: 0x0, symName: __ZN4CardC1ERKS_, symObjAddr: 0x123C0, symBinAddr: 0x100013D84, symSize: 0x34 }
  - { offsetInCU: 0x2E5C0, offset: 0x2E5C0, size: 0x8, addend: 0x0, symName: __ZN4CardC2ERKS_, symObjAddr: 0x123F4, symBinAddr: 0x100013DB8, symSize: 0xAC }
  - { offsetInCU: 0x2E5FB, offset: 0x2E5FB, size: 0x8, addend: 0x0, symName: __ZN2sf6SpriteC1ERKS0_, symObjAddr: 0x124A0, symBinAddr: 0x100013E64, symSize: 0x34 }
  - { offsetInCU: 0x2E630, offset: 0x2E630, size: 0x8, addend: 0x0, symName: __ZN2sf6SpriteC2ERKS0_, symObjAddr: 0x124D4, symBinAddr: 0x100013E98, symSize: 0x88 }
  - { offsetInCU: 0x2E66B, offset: 0x2E66B, size: 0x8, addend: 0x0, symName: __ZNSt3__119__to_address_helperINS_16reverse_iteratorIP4CardEEvE6__callB7v160006ERKS4_, symObjAddr: 0x1255C, symBinAddr: 0x100013F20, symSize: 0x4C }
  - { offsetInCU: 0x2E68E, offset: 0x2E68E, size: 0x8, addend: 0x0, symName: __ZNKSt3__116reverse_iteratorIP4CardEptB7v160006Ev, symObjAddr: 0x125A8, symBinAddr: 0x100013F6C, symSize: 0x24 }
  - { offsetInCU: 0x2E6B4, offset: 0x2E6B4, size: 0x8, addend: 0x0, symName: __ZNSt3__128__exception_guard_exceptionsINS_29_AllocatorDestroyRangeReverseINS_9allocatorI4CardEENS_16reverse_iteratorIPS3_EEEEED2B7v160006Ev, symObjAddr: 0x125CC, symBinAddr: 0x100013F90, symSize: 0x48 }
  - { offsetInCU: 0x2E6DE, offset: 0x2E6DE, size: 0x8, addend: 0x0, symName: __ZNKSt3__129_AllocatorDestroyRangeReverseINS_9allocatorI4CardEENS_16reverse_iteratorIPS2_EEEclB7v160006Ev, symObjAddr: 0x12614, symBinAddr: 0x100013FD8, symSize: 0xB4 }
  - { offsetInCU: 0x2E705, offset: 0x2E705, size: 0x8, addend: 0x0, symName: __ZNSt3__116reverse_iteratorINS0_IP4CardEEEC1B7v160006ES3_, symObjAddr: 0x12738, symBinAddr: 0x1000140FC, symSize: 0x3C }
  - { offsetInCU: 0x2E73D, offset: 0x2E73D, size: 0x8, addend: 0x0, symName: __ZNSt3__116reverse_iteratorINS0_IP4CardEEEppB7v160006Ev, symObjAddr: 0x127F8, symBinAddr: 0x1000141BC, symSize: 0x30 }
  - { offsetInCU: 0x2E763, offset: 0x2E763, size: 0x8, addend: 0x0, symName: __ZNKSt3__116reverse_iteratorINS0_IP4CardEEE4baseB7v160006Ev, symObjAddr: 0x12828, symBinAddr: 0x1000141EC, symSize: 0x24 }
  - { offsetInCU: 0x2E78F, offset: 0x2E78F, size: 0x8, addend: 0x0, symName: __ZNSt3__119__to_address_helperINS_16reverse_iteratorINS1_IP4CardEEEEvE6__callB7v160006ERKS5_, symObjAddr: 0x1284C, symBinAddr: 0x100014210, symSize: 0x4C }
  - { offsetInCU: 0x2E7B2, offset: 0x2E7B2, size: 0x8, addend: 0x0, symName: __ZNKSt3__116reverse_iteratorINS0_IP4CardEEEptB7v160006Ev, symObjAddr: 0x12898, symBinAddr: 0x10001425C, symSize: 0x24 }
  - { offsetInCU: 0x2E7D8, offset: 0x2E7D8, size: 0x8, addend: 0x0, symName: __ZNKSt3__116reverse_iteratorINS0_IP4CardEEEdeB7v160006Ev, symObjAddr: 0x128BC, symBinAddr: 0x100014280, symSize: 0x34 }
  - { offsetInCU: 0x2E80C, offset: 0x2E80C, size: 0x8, addend: 0x0, symName: __ZNSt3__116reverse_iteratorIP4CardEmmB7v160006Ev, symObjAddr: 0x128F0, symBinAddr: 0x1000142B4, symSize: 0x20 }
  - { offsetInCU: 0x2E832, offset: 0x2E832, size: 0x8, addend: 0x0, symName: __ZNSt3__116reverse_iteratorINS0_IP4CardEEEC2B7v160006ES3_, symObjAddr: 0x12910, symBinAddr: 0x1000142D4, symSize: 0x2C }
  - { offsetInCU: 0x2E86A, offset: 0x2E86A, size: 0x8, addend: 0x0, symName: __ZNSt3__116reverse_iteratorIP4CardEC2B7v160006ES2_, symObjAddr: 0x1293C, symBinAddr: 0x100014300, symSize: 0x28 }
  - { offsetInCU: 0x2E8A2, offset: 0x2E8A2, size: 0x8, addend: 0x0, symName: __ZNSt3__114__split_bufferI4CardRNS_9allocatorIS1_EEED2Ev, symObjAddr: 0x12964, symBinAddr: 0x100014328, symSize: 0x80 }
  - { offsetInCU: 0x2E8CE, offset: 0x2E8CE, size: 0x8, addend: 0x0, symName: __ZNSt3__114__split_bufferI4CardRNS_9allocatorIS1_EEE5clearB7v160006Ev, symObjAddr: 0x129E4, symBinAddr: 0x1000143A8, symSize: 0x28 }
  - { offsetInCU: 0x2E8F4, offset: 0x2E8F4, size: 0x8, addend: 0x0, symName: __ZNKSt3__114__split_bufferI4CardRNS_9allocatorIS1_EEE8capacityB7v160006Ev, symObjAddr: 0x12A0C, symBinAddr: 0x1000143D0, symSize: 0x40 }
  - { offsetInCU: 0x2E91A, offset: 0x2E91A, size: 0x8, addend: 0x0, symName: __ZNSt3__114__split_bufferI4CardRNS_9allocatorIS1_EEE17__destruct_at_endB7v160006EPS1_, symObjAddr: 0x12A4C, symBinAddr: 0x100014410, symSize: 0x2C }
  - { offsetInCU: 0x2E94E, offset: 0x2E94E, size: 0x8, addend: 0x0, symName: __ZNSt3__114__split_bufferI4CardRNS_9allocatorIS1_EEE17__destruct_at_endB7v160006EPS1_NS_17integral_constantIbLb0EEE, symObjAddr: 0x12A78, symBinAddr: 0x10001443C, symSize: 0x94 }
  - { offsetInCU: 0x2E98F, offset: 0x2E98F, size: 0x8, addend: 0x0, symName: __ZNKSt3__114__split_bufferI4CardRNS_9allocatorIS1_EEE9__end_capB7v160006Ev, symObjAddr: 0x12B0C, symBinAddr: 0x1000144D0, symSize: 0x28 }
  - { offsetInCU: 0x2E9B5, offset: 0x2E9B5, size: 0x8, addend: 0x0, symName: __ZNKSt3__117__compressed_pairIP4CardRNS_9allocatorIS1_EEE5firstB7v160006Ev, symObjAddr: 0x12B34, symBinAddr: 0x1000144F8, symSize: 0x24 }
  - { offsetInCU: 0x2E9DB, offset: 0x2E9DB, size: 0x8, addend: 0x0, symName: __ZNSt3__123mersenne_twister_engineIjLm32ELm624ELm397ELm31ELj2567483615ELm11ELj4294967295ELm7ELj2636928640ELm15ELj4022730752ELm18ELj1812433253EEC2B7v160006Ej, symObjAddr: 0x12B58, symBinAddr: 0x10001451C, symSize: 0x34 }
  - { offsetInCU: 0x2EA13, offset: 0x2EA13, size: 0x8, addend: 0x0, symName: __ZNSt3__123mersenne_twister_engineIjLm32ELm624ELm397ELm31ELj2567483615ELm11ELj4294967295ELm7ELj2636928640ELm15ELj4022730752ELm18ELj1812433253EE4seedEj, symObjAddr: 0x12B8C, symBinAddr: 0x100014550, symSize: 0xC4 }
  - { offsetInCU: 0x2EA66, offset: 0x2EA66, size: 0x8, addend: 0x0, symName: __ZNSt3__123mersenne_twister_engineIjLm32ELm624ELm397ELm31ELj2567483615ELm11ELj4294967295ELm7ELj2636928640ELm15ELj4022730752ELm18ELj1812433253EE8__rshiftB7v160006ILm30EEENS_9enable_ifIXltT_L_ZNS1_3_DtEEEjE4typeEj, symObjAddr: 0x12C50, symBinAddr: 0x100014614, symSize: 0x18 }
  - { offsetInCU: 0x2EA93, offset: 0x2EA93, size: 0x8, addend: 0x0, symName: __ZNSt3__16vectorI4CardNS_9allocatorIS1_EEE11__make_iterB7v160006EPS1_, symObjAddr: 0x12C68, symBinAddr: 0x10001462C, symSize: 0x34 }
  - { offsetInCU: 0x2EAC8, offset: 0x2EAC8, size: 0x8, addend: 0x0, symName: __ZNSt3__111__wrap_iterIP4CardEC1B7v160006EPKvS2_, symObjAddr: 0x12C9C, symBinAddr: 0x100014660, symSize: 0x3C }
  - { offsetInCU: 0x2EB0E, offset: 0x2EB0E, size: 0x8, addend: 0x0, symName: __ZNSt3__111__wrap_iterIP4CardEC2B7v160006EPKvS2_, symObjAddr: 0x12CD8, symBinAddr: 0x10001469C, symSize: 0x24 }
  - { offsetInCU: 0x2EB54, offset: 0x2EB54, size: 0x8, addend: 0x0, symName: __ZNSt3__18_IterOpsINS_17_ClassicAlgPolicyEE4nextB7v160006INS_11__wrap_iterIP4CardEEEET_S8_S8_, symObjAddr: 0x12E44, symBinAddr: 0x100014808, symSize: 0x20 }
  - { offsetInCU: 0x2EB8B, offset: 0x2EB8B, size: 0x8, addend: 0x0, symName: __ZNSt3__124uniform_int_distributionIlEC1Ell, symObjAddr: 0x12EAC, symBinAddr: 0x100014870, symSize: 0x3C }
  - { offsetInCU: 0x2EBD1, offset: 0x2EBD1, size: 0x8, addend: 0x0, symName: __ZNSt3__111__wrap_iterIP4CardEmmB7v160006Ev, symObjAddr: 0x12EE8, symBinAddr: 0x1000148AC, symSize: 0x20 }
  - { offsetInCU: 0x2EBF7, offset: 0x2EBF7, size: 0x8, addend: 0x0, symName: __ZNSt3__124uniform_int_distributionIlE10param_typeC1Ell, symObjAddr: 0x130C4, symBinAddr: 0x100014A88, symSize: 0x3C }
  - { offsetInCU: 0x2EC43, offset: 0x2EC43, size: 0x8, addend: 0x0, symName: __ZNSt3__18_IterOpsINS_17_ClassicAlgPolicyEE9iter_swapB7v160006IRNS_11__wrap_iterIP4CardEES7_EEvOT_OT0_, symObjAddr: 0x13100, symBinAddr: 0x100014AC4, symSize: 0x44 }
  - { offsetInCU: 0x2EC86, offset: 0x2EC86, size: 0x8, addend: 0x0, symName: __ZNKSt3__111__wrap_iterIP4CardEplB7v160006El, symObjAddr: 0x13144, symBinAddr: 0x100014B08, symSize: 0x3C }
  - { offsetInCU: 0x2ECC8, offset: 0x2ECC8, size: 0x8, addend: 0x0, symName: __ZNKSt3__111__wrap_iterIP4CardE4baseB7v160006Ev, symObjAddr: 0x13180, symBinAddr: 0x100014B44, symSize: 0x18 }
  - { offsetInCU: 0x2ECEE, offset: 0x2ECEE, size: 0x8, addend: 0x0, symName: __ZNSt3__124uniform_int_distributionIlEC2Ell, symObjAddr: 0x13198, symBinAddr: 0x100014B5C, symSize: 0x3C }
  - { offsetInCU: 0x2ED34, offset: 0x2ED34, size: 0x8, addend: 0x0, symName: __ZNKSt3__124uniform_int_distributionIlE10param_type1bEv, symObjAddr: 0x131D4, symBinAddr: 0x100014B98, symSize: 0x18 }
  - { offsetInCU: 0x2ED5A, offset: 0x2ED5A, size: 0x8, addend: 0x0, symName: __ZNKSt3__124uniform_int_distributionIlE10param_type1aEv, symObjAddr: 0x131EC, symBinAddr: 0x100014BB0, symSize: 0x18 }
  - { offsetInCU: 0x2ED80, offset: 0x2ED80, size: 0x8, addend: 0x0, symName: __ZNSt3__125__independent_bits_engineINS_23mersenne_twister_engineIjLm32ELm624ELm397ELm31ELj2567483615ELm11ELj4294967295ELm7ELj2636928640ELm15ELj4022730752ELm18ELj1812433253EEEmEC1ERS2_m, symObjAddr: 0x13204, symBinAddr: 0x100014BC8, symSize: 0x3C }
  - { offsetInCU: 0x2EDC7, offset: 0x2EDC7, size: 0x8, addend: 0x0, symName: __ZNSt3__125__independent_bits_engineINS_23mersenne_twister_engineIjLm32ELm624ELm397ELm31ELj2567483615ELm11ELj4294967295ELm7ELj2636928640ELm15ELj4022730752ELm18ELj1812433253EEEmEclEv, symObjAddr: 0x13240, symBinAddr: 0x100014C04, symSize: 0x24 }
  - { offsetInCU: 0x2EDED, offset: 0x2EDED, size: 0x8, addend: 0x0, symName: __ZNSt3__125__independent_bits_engineINS_23mersenne_twister_engineIjLm32ELm624ELm397ELm31ELj2567483615ELm11ELj4294967295ELm7ELj2636928640ELm15ELj4022730752ELm18ELj1812433253EEEmEC2ERS2_m, symObjAddr: 0x132B8, symBinAddr: 0x100014C7C, symSize: 0x264 }
  - { offsetInCU: 0x2EE34, offset: 0x2EE34, size: 0x8, addend: 0x0, symName: __ZNSt3__125__independent_bits_engineINS_23mersenne_twister_engineIjLm32ELm624ELm397ELm31ELj2567483615ELm11ELj4294967295ELm7ELj2636928640ELm15ELj4022730752ELm18ELj1812433253EEEmE6__evalENS_17integral_constantIbLb1EEE, symObjAddr: 0x1351C, symBinAddr: 0x100014EE0, symSize: 0x1F0 }
  - { offsetInCU: 0x2EEF2, offset: 0x2EEF2, size: 0x8, addend: 0x0, symName: __ZNSt3__123mersenne_twister_engineIjLm32ELm624ELm397ELm31ELj2567483615ELm11ELj4294967295ELm7ELj2636928640ELm15ELj4022730752ELm18ELj1812433253EEclEv, symObjAddr: 0x1370C, symBinAddr: 0x1000150D0, symSize: 0x14C }
  - { offsetInCU: 0x2EF65, offset: 0x2EF65, size: 0x8, addend: 0x0, symName: __ZNSt3__123mersenne_twister_engineIjLm32ELm624ELm397ELm31ELj2567483615ELm11ELj4294967295ELm7ELj2636928640ELm15ELj4022730752ELm18ELj1812433253EE3minB7v160006Ev, symObjAddr: 0x13858, symBinAddr: 0x10001521C, symSize: 0x8 }
  - { offsetInCU: 0x2EF79, offset: 0x2EF79, size: 0x8, addend: 0x0, symName: __ZNSt3__123mersenne_twister_engineIjLm32ELm624ELm397ELm31ELj2567483615ELm11ELj4294967295ELm7ELj2636928640ELm15ELj4022730752ELm18ELj1812433253EE8__rshiftB7v160006ILm1EEENS_9enable_ifIXltT_L_ZNS1_3_DtEEEjE4typeEj, symObjAddr: 0x13860, symBinAddr: 0x100015224, symSize: 0x18 }
  - { offsetInCU: 0x2EFA6, offset: 0x2EFA6, size: 0x8, addend: 0x0, symName: __ZNSt3__123mersenne_twister_engineIjLm32ELm624ELm397ELm31ELj2567483615ELm11ELj4294967295ELm7ELj2636928640ELm15ELj4022730752ELm18ELj1812433253EE8__rshiftB7v160006ILm11EEENS_9enable_ifIXltT_L_ZNS1_3_DtEEEjE4typeEj, symObjAddr: 0x13878, symBinAddr: 0x10001523C, symSize: 0x18 }
  - { offsetInCU: 0x2EFD3, offset: 0x2EFD3, size: 0x8, addend: 0x0, symName: __ZNSt3__123mersenne_twister_engineIjLm32ELm624ELm397ELm31ELj2567483615ELm11ELj4294967295ELm7ELj2636928640ELm15ELj4022730752ELm18ELj1812433253EE8__lshiftB7v160006ILm7EEENS_9enable_ifIXltT_Lm32EEjE4typeEj, symObjAddr: 0x13890, symBinAddr: 0x100015254, symSize: 0x1C }
  - { offsetInCU: 0x2F000, offset: 0x2F000, size: 0x8, addend: 0x0, symName: __ZNSt3__123mersenne_twister_engineIjLm32ELm624ELm397ELm31ELj2567483615ELm11ELj4294967295ELm7ELj2636928640ELm15ELj4022730752ELm18ELj1812433253EE8__lshiftB7v160006ILm15EEENS_9enable_ifIXltT_Lm32EEjE4typeEj, symObjAddr: 0x138AC, symBinAddr: 0x100015270, symSize: 0x1C }
  - { offsetInCU: 0x2F02D, offset: 0x2F02D, size: 0x8, addend: 0x0, symName: __ZNSt3__123mersenne_twister_engineIjLm32ELm624ELm397ELm31ELj2567483615ELm11ELj4294967295ELm7ELj2636928640ELm15ELj4022730752ELm18ELj1812433253EE8__rshiftB7v160006ILm18EEENS_9enable_ifIXltT_L_ZNS1_3_DtEEEjE4typeEj, symObjAddr: 0x138C8, symBinAddr: 0x10001528C, symSize: 0x18 }
  - { offsetInCU: 0x2F05A, offset: 0x2F05A, size: 0x8, addend: 0x0, symName: __ZNSt3__124uniform_int_distributionIlE10param_typeC2Ell, symObjAddr: 0x138E0, symBinAddr: 0x1000152A4, symSize: 0x2C }
  - { offsetInCU: 0x2F0A0, offset: 0x2F0A0, size: 0x8, addend: 0x0, symName: __ZN4CardaSERKS_, symObjAddr: 0x139F0, symBinAddr: 0x1000153B4, symSize: 0x7C }
  - { offsetInCU: 0x2F0D7, offset: 0x2F0D7, size: 0x8, addend: 0x0, symName: __ZN2sf6SpriteaSERKS0_, symObjAddr: 0x13A6C, symBinAddr: 0x100015430, symSize: 0x60 }
  - { offsetInCU: 0x2F10E, offset: 0x2F10E, size: 0x8, addend: 0x0, symName: __ZN2sf8DrawableaSERKS0_, symObjAddr: 0x13ACC, symBinAddr: 0x100015490, symSize: 0x18 }
  - { offsetInCU: 0x2F145, offset: 0x2F145, size: 0x8, addend: 0x0, symName: __ZN2sf13TransformableaSERKS0_, symObjAddr: 0x13AE4, symBinAddr: 0x1000154A8, symSize: 0x94 }
  - { offsetInCU: 0x2F176, offset: 0x2F176, size: 0x8, addend: 0x0, symName: __ZNSt3__111__wrap_iterIP4CardEpLB7v160006El, symObjAddr: 0x13B78, symBinAddr: 0x10001553C, symSize: 0x30 }
  - { offsetInCU: 0x2F1AA, offset: 0x2F1AA, size: 0x8, addend: 0x0, symName: __ZNKSt3__16vectorI4CardNS_9allocatorIS1_EEE11__make_iterB7v160006EPKS1_, symObjAddr: 0x13BA8, symBinAddr: 0x10001556C, symSize: 0x34 }
  - { offsetInCU: 0x2F1DF, offset: 0x2F1DF, size: 0x8, addend: 0x0, symName: __ZNSt3__111__wrap_iterIPK4CardEC1B7v160006EPKvS3_, symObjAddr: 0x13BDC, symBinAddr: 0x1000155A0, symSize: 0x3C }
  - { offsetInCU: 0x2F225, offset: 0x2F225, size: 0x8, addend: 0x0, symName: __ZNSt3__111__wrap_iterIPK4CardEC2B7v160006EPKvS3_, symObjAddr: 0x13C18, symBinAddr: 0x1000155DC, symSize: 0x24 }
  - { offsetInCU: 0x2F26B, offset: 0x2F26B, size: 0x8, addend: 0x0, symName: __ZNKSt3__111__wrap_iterIPK4CardE4baseB7v160006Ev, symObjAddr: 0x13C84, symBinAddr: 0x100015648, symSize: 0x18 }
  - { offsetInCU: 0x2F291, offset: 0x2F291, size: 0x8, addend: 0x0, symName: __ZN2sf7Vector2IfEC2Eff, symObjAddr: 0x13C9C, symBinAddr: 0x100015660, symSize: 0x2C }
  - { offsetInCU: 0x2F2D9, offset: 0x2F2D9, size: 0x8, addend: 0x0, symName: __ZNKSt3__16vectorI4CardNS_9allocatorIS1_EEE17__annotate_shrinkB7v160006Em, symObjAddr: 0x13CC8, symBinAddr: 0x10001568C, symSize: 0xD0 }
  - { offsetInCU: 0x2F30E, offset: 0x2F30E, size: 0x8, addend: 0x0, symName: __ZNSt3__16vectorI4CardNS_9allocatorIS1_EEE13__move_assignERS4_NS_17integral_constantIbLb1EEE, symObjAddr: 0x13D98, symBinAddr: 0x10001575C, symSize: 0xA4 }
  - { offsetInCU: 0x2F351, offset: 0x2F351, size: 0x8, addend: 0x0, symName: __ZNSt3__16vectorI4CardNS_9allocatorIS1_EEE13__vdeallocateEv, symObjAddr: 0x13E3C, symBinAddr: 0x100015800, symSize: 0x8C }
  - { offsetInCU: 0x2F379, offset: 0x2F379, size: 0x8, addend: 0x0, symName: __ZNSt3__16vectorI4CardNS_9allocatorIS1_EEE19__move_assign_allocB7v160006ERS4_, symObjAddr: 0x13EC8, symBinAddr: 0x10001588C, symSize: 0x2C }
  - { offsetInCU: 0x2F3AE, offset: 0x2F3AE, size: 0x8, addend: 0x0, symName: __ZNSt3__16vectorI4CardNS_9allocatorIS1_EEE19__move_assign_allocB7v160006ERS4_NS_17integral_constantIbLb1EEE, symObjAddr: 0x13F08, symBinAddr: 0x1000158CC, symSize: 0x38 }
  - { offsetInCU: 0x2F3EF, offset: 0x2F3EF, size: 0x8, addend: 0x0, symName: __ZNSt3__16vectorI4CardNS_9allocatorIS1_EEE22__construct_one_at_endB7v160006IJRKS1_EEEvDpOT_, symObjAddr: 0x13F40, symBinAddr: 0x100015904, symSize: 0x98 }
  - { offsetInCU: 0x2F43E, offset: 0x2F43E, size: 0x8, addend: 0x0, symName: __ZNSt3__16vectorI4CardNS_9allocatorIS1_EEE21__push_back_slow_pathIRKS1_EEvOT_, symObjAddr: 0x13FD8, symBinAddr: 0x10001599C, symSize: 0xE0 }
  - { offsetInCU: 0x2F49C, offset: 0x2F49C, size: 0x8, addend: 0x0, symName: __ZNSt3__16vectorI4CardNS_9allocatorIS1_EEE17__destruct_at_endB7v160006EPS1_, symObjAddr: 0x140B8, symBinAddr: 0x100015A7C, symSize: 0x88 }
  - { offsetInCU: 0x2F4E0, offset: 0x2F4E0, size: 0x8, addend: 0x0, symName: __ZNSt3__16vectorI4CardNS_9allocatorIS1_EEE27__invalidate_iterators_pastB7v160006EPS1_, symObjAddr: 0x14140, symBinAddr: 0x100015B04, symSize: 0x14 }
  - { offsetInCU: 0x2F517, offset: 0x2F517, size: 0x8, addend: 0x0, symName: __ZNSt3__112basic_stringIcNS_11char_traitsIcEENS_9allocatorIcEEEC2B7v160006Ev, symObjAddr: 0x14154, symBinAddr: 0x100015B18, symSize: 0x44 }
  - { offsetInCU: 0x2F541, offset: 0x2F541, size: 0x8, addend: 0x0, symName: __ZNSt3__112basic_stringIcNS_11char_traitsIcEENS_9allocatorIcEEE14__default_initB7v160006Ev, symObjAddr: 0x14198, symBinAddr: 0x100015B5C, symSize: 0xB0 }
  - { offsetInCU: 0x2F593, offset: 0x2F593, size: 0x8, addend: 0x0, symName: __ZNSt3__111char_traitsIcE6assignERcRKc, symObjAddr: 0x14258, symBinAddr: 0x100015C1C, symSize: 0x24 }
...
